(dp1
((I8
I4
tp2
(I9
I6
tp3
tp4
I0
s((I21
I6
tp5
(I5
I8
tp6
tp7
I0
s((I9
I4
tp8
(I8
I6
tp9
tp10
I0
s((I10
I4
tp11
(I10
I6
tp12
tp13
I0
s((I22
I6
tp14
(I12
I7
tp15
tp16
I0
s((I20
I6
tp17
(I19
I5
tp18
tp19
F0.94134601152255892
s((I17
I7
tp20
(I19
I4
tp21
tp22
I0
s((I16
I8
tp23
(I10
I5
tp24
tp25
I0
s((I5
I7
tp26
(I7
I8
tp27
tp28
I0
s(g2
g18
tp29
I0
s((I6
I7
tp30
(I21
I7
tp31
tp32
I0
s((I7
I7
tp33
(I20
I4
tp34
tp35
I0
s(g3
(I21
I5
tp36
tp37
I0
s(g11
(I9
I5
tp38
tp39
I0
s(g17
g30
tp40
I0
s(g26
(I5
I9
tp41
tp42
I0
s((I8
I5
tp43
g41
tp44
I0
s((I18
I5
tp45
(I15
I8
tp46
tp47
I0
s((I2
I9
tp48
(I18
I4
tp49
tp50
I0
s(g36
g23
tp51
I0
s(g15
g14
tp52
I0
s((I5
I10
tp53
(I16
I9
tp54
tp55
I0
s((I8
I7
tp56
g45
tp57
I0
s(g5
(I7
I6
tp58
tp59
I0
s(g38
g27
tp60
I0
s(g15
g27
tp61
I0
s((I11
I6
tp62
g34
tp63
I0
s((I6
I9
tp64
g14
tp65
I0
s(g14
(I16
I7
tp66
tp67
I0
s((I11
I5
tp68
(I14
I9
tp69
tp70
I0
s(g26
g6
tp71
I0
s((I14
I8
tp72
(I3
I9
tp73
tp74
I0
s(g33
(I15
I10
tp75
tp76
I0
s((I12
I9
tp77
g14
tp78
I0
s((I22
I7
tp79
g46
tp80
I0
s((I4
I9
tp81
g75
tp82
I0
s((I4
I10
tp83
g53
tp84
I0
s(g56
g17
tp85
I0
s(g17
g56
tp86
I0
s(g46
g68
tp87
I0
s(g46
(I13
I10
tp88
tp89
I0
s(g11
g17
tp90
I0
s((I12
I8
tp91
g9
tp92
I0
s(g5
(I16
I6
tp93
tp94
I0
s((I6
I8
tp95
g83
tp96
I0
s((I19
I6
tp97
g49
tp98
I0
s(g53
(I10
I7
tp99
tp100
I0
s(g88
g54
tp101
I0
s(g33
g36
tp102
I0
s(g11
g99
tp103
I0
s((I3
I10
tp104
g24
tp105
I0
s(g46
g49
tp106
I0
s(g33
(I11
I7
tp107
tp108
I0
s(g33
(I15
I9
tp109
tp110
I0
s(g30
g97
tp111
I0
s(g5
g68
tp112
I0
s((I22
I8
tp113
g21
tp114
I0
s((I11
I8
tp115
g26
tp116
I0
s(g8
g48
tp117
I0
s(g107
g75
tp118
I0
s((I12
I6
tp119
g11
tp120
I0
s(g20
g73
tp121
I0
s((I6
I6
tp122
g20
tp123
I0
s(g18
(I17
I6
tp124
tp125
I0
s(g11
g49
tp126
I0
s(g97
g64
tp127
I0
s(g93
g97
tp128
I0
s(g91
g119
tp129
I0
s((I13
I8
tp130
g97
tp131
I0
s(g73
g122
tp132
I0
s(g113
g81
tp133
I0
s(g46
g30
tp134
I0
s(g56
g62
tp135
I0
s(g64
g81
tp136
I0
s(g113
g5
tp137
I0
s(g73
g113
tp138
I0
s((I17
I5
tp139
(I17
I8
tp140
tp141
I0
s(g31
g48
tp142
I0
s(g12
(I21
I9
tp143
tp144
I0
s(g119
g64
tp145
I0
s(g104
g104
tp146
F0.59047619047619049
s(g140
g91
tp147
I0
s(g58
g20
tp148
I0
s(g21
g68
tp149
I0
s(g77
g77
tp150
F0.49226604795050272
s(g46
g12
tp151
I0
s((I18
I7
tp152
g43
tp153
I0
s(g54
g139
tp154
I0
s(g109
g36
tp155
I0
s(g53
g69
tp156
I0
s((I13
I9
tp157
g54
tp158
I0
s(g45
g43
tp159
I0
s((I20
I5
tp160
g140
tp161
I0
s(g119
g41
tp162
I0
s(g66
g69
tp163
I0
s(g3
g31
tp164
I0
s(g26
g24
tp165
I0
s(g93
g31
tp166
I0
s(g41
g143
tp167
I0
s(g27
g38
tp168
I0
s(g75
g107
tp169
I0
s(g21
g30
tp170
I0
s(g91
g104
tp171
I0
s(g139
g27
tp172
I0
s(g36
g26
tp173
I0
s(g95
g130
tp174
I0
s(g109
g152
tp175
I0
s((I18
I6
tp176
g45
tp177
I0
s(g36
g122
tp178
I0
s(g43
g38
tp179
I0
s(g83
g107
tp180
I0
s(g93
g113
tp181
I0
s(g58
g72
tp182
I0
s(g45
g56
tp183
I0
s(g99
g14
tp184
I0
s(g81
g54
tp185
I0
s(g143
g104
tp186
I0
s(g140
g115
tp187
I0
s(g140
g6
tp188
I0
s(g11
g72
tp189
I0
s(g176
g18
tp190
I0
s(g12
g17
tp191
I0
s(g157
g17
tp192
I0
s((I7
I5
tp193
g14
tp194
I0
s(g23
g33
tp195
I0
s(g115
g23
tp196
I0
s(g9
g3
tp197
I0
s(g41
(I15
I7
tp198
tp199
I0
s(g193
g3
tp200
I0
s(g15
g107
tp201
I0
s(g107
g21
tp202
I0
s(g5
g43
tp203
I0
s(g2
g30
tp204
I0
s(g93
g20
tp205
I0
s(g9
g97
tp206
I0
s(g18
g8
tp207
I0
s(g33
g77
tp208
I0
s(g130
g68
tp209
I0
s(g18
g58
tp210
I0
s(g24
g104
tp211
I0
s(g83
g62
tp212
I0
s(g115
g91
tp213
I0
s(g31
g31
tp214
F0.81396802445985739
s(g157
g58
tp215
I0
s(g14
g193
tp216
I0
s(g18
g93
tp217
I0
s(g5
g99
tp218
I0
s(g8
g130
tp219
I0
s(g31
g21
tp220
I0
s(g26
g43
tp221
I0
s(g64
g160
tp222
I0
s(g56
(I13
I7
tp223
tp224
I0
s(g143
g45
tp225
I0
s(g18
g48
tp226
I0
s(g27
g79
tp227
I0
s(g2
g160
tp228
I0
s(g54
g68
tp229
I0
s(g143
g11
tp230
I0
s(g8
g93
tp231
I0
s(g23
g38
tp232
I0
s(g15
g97
tp233
I0
s(g2
g93
tp234
I0
s(g21
g198
tp235
I0
s(g27
g46
tp236
I0
s(g6
g139
tp237
I0
s(g83
(I14
I10
tp238
tp239
I0
s(g5
g72
tp240
I0
s(g30
g176
tp241
I0
s(g33
g124
tp242
I0
s(g36
g130
tp243
I0
s(g99
g23
tp244
I0
s(g46
g46
tp245
F0.70960577456968355
s(g6
g54
tp246
I0
s(g77
g238
tp247
I0
s(g68
g157
tp248
I0
s(g38
g72
tp249
I0
s(g83
g95
tp250
I0
s(g193
g64
tp251
I0
s(g38
g26
tp252
I0
s(g45
g157
tp253
I0
s(g109
g97
tp254
I0
s(g83
g75
tp255
I0
s(g140
g11
tp256
I0
s(g20
g140
tp257
F0.33992094861660077
s(g33
g12
tp258
I0
s(g30
g15
tp259
I0
s(g160
g54
tp260
I0
s(g46
g81
tp261
I0
s(g30
g48
tp262
I0
s(g30
g11
tp263
I0
s(g238
g109
tp264
I0
s(g68
g122
tp265
I0
s(g93
g107
tp266
I0
s(g17
g6
tp267
I0
s(g95
g9
tp268
I0
s(g139
g54
tp269
I0
s(g77
g79
tp270
I0
s(g9
g41
tp271
I0
s(g113
g41
tp272
I0
s(g143
g34
tp273
I0
s(g68
g140
tp274
I0
s(g6
g31
tp275
I0
s(g45
g6
tp276
I0
s(g17
g38
tp277
I0
s(g14
g27
tp278
I0
s(g97
g43
tp279
I0
s(g62
g8
tp280
I0
s(g11
g30
tp281
I0
s(g124
g34
tp282
I0
s(g66
g56
tp283
I0
s(g3
g17
tp284
I0
s(g75
g45
tp285
I0
s(g119
g115
tp286
I0
s(g238
g20
tp287
I0
s(g160
g23
tp288
I0
s(g157
g56
tp289
I0
s(g113
g38
tp290
I0
s(g27
g62
tp291
I0
s(g77
g152
tp292
I0
s(g53
g11
tp293
I0
s(g24
g34
tp294
I0
s(g45
g33
tp295
I0
s(g81
g81
tp296
F0.85443374627084279
s(g41
g75
tp297
I0
s(g79
g62
tp298
I0
s(g45
g9
tp299
I0
s(g176
g11
tp300
I0
s(g88
g64
tp301
I0
s(g12
g83
tp302
I0
s(g238
g223
tp303
I0
s(g20
g15
tp304
I0
s(g38
g18
tp305
I0
s(g91
g79
tp306
I0
s(g88
g83
tp307
I0
s(g38
g54
tp308
I0
s(g8
g15
tp309
I0
s(g62
g68
tp310
I0
s(g17
g33
tp311
I0
s(g198
g160
tp312
I0
s(g12
g68
tp313
I0
s(g130
g24
tp314
I0
s(g26
g81
tp315
I0
s(g99
g24
tp316
I0
s(g97
g72
tp317
I0
s(g72
g62
tp318
I0
s(g56
g23
tp319
I0
s(g54
g198
tp320
I0
s(g107
g9
tp321
I0
s(g115
g45
tp322
I0
s(g62
g43
tp323
I0
s(g38
g58
tp324
I0
s(g140
g38
tp325
I0
s(g152
(I21
I8
tp326
tp327
I0
s(g9
g140
tp328
I0
s(g5
g8
tp329
I0
s(g115
g79
tp330
I0
s(g53
g93
tp331
I0
s(g14
g157
tp332
I0
s(g64
g62
tp333
I0
s(g36
g157
tp334
I0
s(g81
g122
tp335
I0
s(g81
g88
tp336
I0
s(g83
g8
tp337
I0
s(g91
g2
tp338
I0
s(g6
g88
tp339
I0
s(g62
g238
tp340
I0
s(g64
g176
tp341
I0
s(g152
g15
tp342
I0
s(g36
g99
tp343
I0
s(g62
g26
tp344
I0
s(g91
g31
tp345
I0
s(g64
g33
tp346
I0
s(g24
g130
tp347
I0
s(g46
g97
tp348
I0
s(g79
g193
tp349
I0
s(g77
g33
tp350
I0
s(g73
g14
tp351
I0
s(g157
g33
tp352
I0
s(g58
g140
tp353
I0
s(g68
g64
tp354
I0
s(g157
g93
tp355
I0
s(g66
g41
tp356
I0
s(g18
g5
tp357
I0
s(g107
g24
tp358
I0
s(g12
g6
tp359
I0
s(g113
g9
tp360
I0
s(g93
g49
tp361
I0
s(g88
g27
tp362
I0
s(g238
g79
tp363
I0
s(g53
g326
tp364
I0
s(g49
g31
tp365
I0
s(g5
g9
tp366
I0
s(g95
g46
tp367
I0
s(g140
g48
tp368
I0
s(g77
g139
tp369
I0
s(g5
g109
tp370
I0
s(g124
g5
tp371
I0
s(g157
g140
tp372
I0
s(g62
g9
tp373
I0
s(g53
g79
tp374
I0
s(g160
g113
tp375
I0
s(g107
g83
tp376
I0
s(g124
g26
tp377
I0
s(g72
g48
tp378
I0
s(g176
g160
tp379
I0
s(g8
g27
tp380
I0
s(g193
g223
tp381
I0
s(g160
g45
tp382
I0
s(g41
g109
tp383
I0
s(g64
g27
tp384
I0
s(g31
g223
tp385
I0
s(g27
g109
tp386
I0
s(g107
g14
tp387
I0
s(g21
g97
tp388
I0
s(g34
g97
tp389
I0
s(g20
g176
tp390
I0
s(g34
g58
tp391
I0
s(g107
g176
tp392
I0
s(g223
g33
tp393
I0
s(g9
g24
tp394
I0
s(g6
g38
tp395
I0
s(g223
g17
tp396
I0
s(g6
g160
tp397
I0
s(g33
g8
tp398
I0
s(g326
g45
tp399
I0
s(g5
g88
tp400
I0
s(g56
g34
tp401
I0
s(g34
g18
tp402
I0
s(g64
g17
tp403
I0
s(g83
g43
tp404
I0
s(g77
g54
tp405
I0
s(g143
g113
tp406
I0
s(g107
g139
tp407
I0
s(g3
g46
tp408
I0
s(g64
g18
tp409
I0
s(g11
g139
tp410
I0
s(g2
g20
tp411
I0
s(g58
g27
tp412
I0
s(g198
g238
tp413
I0
s(g3
g5
tp414
I0
s(g17
g66
tp415
I0
s(g45
g95
tp416
I0
s(g107
g23
tp417
I0
s(g223
g3
tp418
I0
s(g21
g34
tp419
F0.28145082235050645
s(g54
g62
tp420
I0
s(g21
g33
tp421
I0
s(g31
g49
tp422
I0
s(g75
g77
tp423
I0
s(g30
g109
tp424
I0
s(g9
g75
tp425
I0
s(g14
g26
tp426
I0
s(g18
g30
tp427
I0
s(g95
g43
tp428
I0
s(g31
g139
tp429
I0
s(g36
g49
tp430
I0
s(g5
g91
tp431
I0
s(g223
g115
tp432
I0
s(g69
g160
tp433
I0
s(g36
g46
tp434
I0
s(g46
g130
tp435
I0
s(g15
g45
tp436
I0
s(g64
g223
tp437
I0
s(g20
g26
tp438
I0
s(g8
g193
tp439
I0
s(g69
g20
tp440
I0
s(g54
g176
tp441
I0
s(g75
g104
tp442
I0
s(g152
g113
tp443
I0
s(g238
g176
tp444
I0
s(g62
g6
tp445
I0
s(g143
g97
tp446
I0
s(g64
g99
tp447
I0
s(g17
g119
tp448
I0
s(g130
g36
tp449
I0
s(g113
g193
tp450
I0
s(g36
g75
tp451
I0
s(g33
g93
tp452
I0
s(g18
g11
tp453
I0
s(g79
g8
tp454
I0
s(g124
g223
tp455
I0
s(g11
g157
tp456
I0
s(g31
g160
tp457
I0
s(g119
g157
tp458
I0
s(g2
g326
tp459
I0
s(g6
g140
tp460
I0
s(g3
g34
tp461
I0
s(g33
g88
tp462
I0
s(g198
g54
tp463
I0
s(g9
g122
tp464
I0
s(g58
g64
tp465
I0
s(g109
g27
tp466
I0
s(g17
g54
tp467
I0
s(g139
g223
tp468
I0
s(g36
g58
tp469
I0
s(g72
g49
tp470
I0
s(g157
g18
tp471
I0
s(g53
g36
tp472
I0
s(g66
g30
tp473
I0
s(g31
g64
tp474
I0
s(g30
g46
tp475
I0
s(g8
g2
tp476
I0
s(g48
g107
tp477
I0
s(g152
g160
tp478
I0
s(g223
g113
tp479
I0
s(g99
g157
tp480
I0
s(g5
g193
tp481
I0
s(g72
g2
tp482
I0
s(g198
g9
tp483
I0
s(g176
g152
tp484
F0.12017167381974249
s(g193
g124
tp485
I0
s(g48
g93
tp486
I0
s(g9
g193
tp487
I0
s(g130
g152
tp488
I0
s(g66
g130
tp489
I0
s(g72
g83
tp490
I0
s(g75
g15
tp491
I0
s(g31
g26
tp492
I0
s(g6
g62
tp493
I0
s(g49
g176
tp494
I0
s(g73
g46
tp495
I0
s(g223
g66
tp496
I0
s(g38
g143
tp497
I0
s(g53
g72
tp498
I0
s(g3
g91
tp499
I0
s(g34
g83
tp500
I0
s(g14
g3
tp501
I0
s(g115
g95
tp502
I0
s(g54
g26
tp503
I0
s(g43
g3
tp504
I0
s(g326
g160
tp505
I0
s(g8
g11
tp506
F0.28825622775800713
s(g122
g38
tp507
I0
s(g34
g68
tp508
I0
s(g15
g113
tp509
I0
s(g53
g23
tp510
I0
s(g34
g99
tp511
I0
s(g223
g45
tp512
I0
s(g223
g12
tp513
I0
s(g12
g97
tp514
I0
s(g93
g140
tp515
I0
s(g45
g26
tp516
I0
s(g23
g11
tp517
I0
s(g17
g8
tp518
I0
s(g115
g113
tp519
I0
s(g193
g69
tp520
I0
s(g9
g38
tp521
I0
s(g107
g124
tp522
I0
s(g107
g18
tp523
I0
s(g9
g31
tp524
I0
s(g326
g99
tp525
I0
s(g62
g143
tp526
I0
s(g75
g17
tp527
I0
s(g17
g26
tp528
I0
s(g38
g81
tp529
I0
s(g36
g21
tp530
I0
s(g31
g119
tp531
I0
s(g81
g41
tp532
F0.087533156498673742
s(g152
g176
tp533
I0
s(g109
g72
tp534
I0
s(g11
g238
tp535
I0
s(g77
g11
tp536
I0
s(g3
g113
tp537
I0
s(g238
g115
tp538
I0
s(g73
g223
tp539
I0
s(g62
g3
tp540
I0
s(g113
g49
tp541
I0
s(g97
g27
tp542
I0
s(g23
g152
tp543
I0
s(g23
g72
tp544
I0
s(g95
g64
tp545
F0.5703125
s(g2
g34
tp546
I0
s(g6
g143
tp547
I0
s(g97
g24
tp548
I0
s(g326
g17
tp549
I0
s(g5
g48
tp550
I0
s(g122
g3
tp551
I0
s(g18
g115
tp552
I0
s(g21
g88
tp553
I0
s(g66
g122
tp554
I0
s(g109
g56
tp555
I0
s(g21
g21
tp556
F0.99867443333153616
s(g5
g176
tp557
I0
s(g140
g223
tp558
I0
s(g109
g91
tp559
I0
s(g62
g198
tp560
I0
s(g122
g5
tp561
I0
s(g31
g17
tp562
F0.98706687899498091
s(g15
g157
tp563
I0
s(g193
g95
tp564
I0
s(g5
g157
tp565
I0
s(g41
g115
tp566
I0
s(g99
g54
tp567
I0
s(g139
g97
tp568
I0
s(g14
g18
tp569
I0
s(g68
g15
tp570
I0
s(g72
g81
tp571
I0
s(g68
g72
tp572
I0
s(g49
g15
tp573
I0
s(g46
g75
tp574
I0
s(g176
g193
tp575
I0
s(g115
g140
tp576
I0
s(g8
g64
tp577
I0
s(g24
g223
tp578
I0
s(g66
g115
tp579
I0
s(g58
g152
tp580
I0
s(g45
g160
tp581
I0
s(g30
g93
tp582
I0
s(g49
g124
tp583
I0
s(g152
g53
tp584
I0
s(g2
g152
tp585
I0
s(g31
g23
tp586
I0
s(g152
g107
tp587
I0
s(g66
g43
tp588
I0
s(g48
g157
tp589
I0
s(g48
g5
tp590
I0
s(g69
g143
tp591
I0
s(g139
g122
tp592
I0
s(g93
g72
tp593
I0
s(g193
g93
tp594
I0
s(g24
g198
tp595
I0
s(g5
g2
tp596
I0
s(g48
g176
tp597
I0
s(g176
g99
tp598
I0
s(g49
g64
tp599
I0
s(g93
g77
tp600
I0
s(g193
g97
tp601
I0
s(g2
g81
tp602
I0
s(g160
g152
tp603
I0
s(g157
g238
tp604
I0
s(g18
g45
tp605
F0.038167938931297711
s(g83
g15
tp606
I0
s(g176
g157
tp607
I0
s(g93
g12
tp608
I0
s(g64
g15
tp609
I0
s(g109
g53
tp610
I0
s(g113
g26
tp611
I0
s(g198
g193
tp612
I0
s(g11
g3
tp613
I0
s(g18
g18
tp614
F0.99792637396291306
s(g3
g38
tp615
F0.43137254901960786
s(g97
g21
tp616
I0
s(g43
g176
tp617
I0
s(g3
g160
tp618
I0
s(g109
g30
tp619
I0
s(g69
g17
tp620
I0
s(g109
g119
tp621
I0
s(g193
g27
tp622
I0
s(g326
g33
tp623
I0
s(g73
g79
tp624
I0
s(g23
g140
tp625
I0
s(g72
g91
tp626
I0
s(g66
g72
tp627
I0
s(g43
g99
tp628
I0
s(g238
g91
tp629
I0
s(g122
g66
tp630
I0
s(g2
g49
tp631
I0
s(g20
g2
tp632
I0
s(g107
g27
tp633
I0
s(g41
g122
tp634
I0
s(g75
g79
tp635
I0
s(g5
g15
tp636
I0
s(g38
g3
tp637
F0.11328125
s(g41
g2
tp638
I0
s(g8
g238
tp639
I0
s(g5
g73
tp640
I0
s(g124
g30
tp641
I0
s(g46
g73
tp642
I0
s(g30
g73
tp643
I0
s(g38
g48
tp644
I0
s(g38
g160
tp645
I0
s(g72
g15
tp646
I0
s(g143
g83
tp647
I0
s(g49
g157
tp648
I0
s(g34
g122
tp649
I0
s(g93
g238
tp650
I0
s(g34
g124
tp651
I0
s(g49
g54
tp652
I0
s(g62
g124
tp653
I0
s(g26
g53
tp654
I0
s(g238
g69
tp655
I0
s(g53
g21
tp656
I0
s(g73
g58
tp657
I0
s(g54
g18
tp658
I0
s(g77
g160
tp659
I0
s(g72
g143
tp660
I0
s(g33
g21
tp661
I0
s(g139
g8
tp662
I0
s(g139
g130
tp663
I0
s(g88
g140
tp664
I0
s(g15
g119
tp665
I0
s(g38
g2
tp666
I0
s(g54
g17
tp667
I0
s(g36
g72
tp668
I0
s(g104
g160
tp669
I0
s(g66
g58
tp670
I0
s(g77
g326
tp671
I0
s(g115
g20
tp672
I0
s(g27
g58
tp673
I0
s(g88
g41
tp674
I0
s(g56
g20
tp675
I0
s(g115
g34
tp676
I0
s(g9
g238
tp677
I0
s(g2
g14
tp678
I0
s(g54
g326
tp679
I0
s(g12
g104
tp680
I0
s(g62
g140
tp681
I0
s(g115
g119
tp682
I0
s(g36
g17
tp683
I0
s(g56
g33
tp684
F0.87096774193548387
s(g83
g36
tp685
I0
s(g56
g81
tp686
I0
s(g73
g12
tp687
I0
s(g18
g104
tp688
I0
s(g54
g79
tp689
I0
s(g64
g6
tp690
I0
s(g36
g124
tp691
I0
s(g238
g43
tp692
I0
s(g73
g130
tp693
I0
s(g21
g45
tp694
I0
s(g9
g99
tp695
I0
s(g238
g143
tp696
I0
s(g66
g68
tp697
I0
s(g73
g24
tp698
I0
s(g91
g45
tp699
I0
s(g17
g73
tp700
I0
s(g36
g119
tp701
I0
s(g17
g157
tp702
I0
s(g62
g83
tp703
I0
s(g14
g49
tp704
I0
s(g140
g176
tp705
I0
s(g62
g107
tp706
I0
s(g68
g93
tp707
I0
s(g49
g38
tp708
I0
s(g115
g66
tp709
I0
s(g12
g24
tp710
F0.25121893984825178
s(g30
g58
tp711
I0
s(g115
g58
tp712
I0
s(g97
g113
tp713
I0
s(g24
g81
tp714
I0
s(g223
g64
tp715
I0
s(g83
g176
tp716
I0
s(g157
g75
tp717
I0
s(g21
g66
tp718
I0
s(g34
g62
tp719
I0
s(g38
g11
tp720
I0
s(g160
g93
tp721
I0
s(g160
g49
tp722
I0
s(g152
g193
tp723
I0
s(g113
g223
tp724
I0
s(g49
g58
tp725
I0
s(g48
g152
tp726
I0
s(g62
g49
tp727
I0
s(g11
g56
tp728
I0
s(g93
g79
tp729
I0
s(g6
g83
tp730
I0
s(g91
g223
tp731
I0
s(g139
g38
tp732
I0
s(g33
g160
tp733
I0
s(g79
g5
tp734
I0
s(g41
g69
tp735
I0
s(g176
g68
tp736
I0
s(g11
g193
tp737
I0
s(g2
g21
tp738
I0
s(g68
g193
tp739
I0
s(g24
g33
tp740
I0
s(g58
g38
tp741
I0
s(g49
g193
tp742
I0
s(g49
g6
tp743
I0
s(g77
g69
tp744
I0
s(g107
g193
tp745
I0
s(g53
g81
tp746
I0
s(g6
g49
tp747
I0
s(g33
g23
tp748
I0
s(g79
g109
tp749
I0
s(g66
g113
tp750
I0
s(g56
g24
tp751
I0
s(g54
g11
tp752
I0
s(g11
g122
tp753
I0
s(g46
g66
tp754
F0.96035473398663307
s(g75
g69
tp755
I0
s(g160
g30
tp756
I0
s(g140
g14
tp757
I0
s(g56
g30
tp758
I0
s(g49
g27
tp759
I0
s(g49
g20
tp760
I0
s(g21
g143
tp761
I0
s(g69
g124
tp762
I0
s(g12
g113
tp763
I0
s(g38
g33
tp764
I0
s(g66
g9
tp765
I0
s(g23
g21
tp766
I0
s(g93
g93
tp767
F0.44370860927152317
s(g193
g6
tp768
I0
s(g238
g95
tp769
I0
s(g107
g3
tp770
I0
s(g20
g238
tp771
I0
s(g95
g124
tp772
I0
s(g124
g27
tp773
I0
s(g6
g15
tp774
I0
s(g62
g21
tp775
I0
s(g41
g49
tp776
I0
s(g95
g31
tp777
I0
s(g27
g223
tp778
I0
s(g69
g77
tp779
I0
s(g11
g9
tp780
I0
s(g115
g54
tp781
I0
s(g68
g91
tp782
I0
s(g41
g68
tp783
I0
s(g56
g27
tp784
I0
s(g97
g143
tp785
I0
s(g49
g91
tp786
I0
s(g97
g23
tp787
I0
s(g238
g34
tp788
I0
s(g176
g223
tp789
I0
s(g62
g31
tp790
I0
s(g31
g140
tp791
I0
s(g140
g73
tp792
I0
s(g12
g23
tp793
I0
s(g64
g75
tp794
I0
s(g143
g30
tp795
I0
s(g176
g140
tp796
I0
s(g38
g15
tp797
I0
s(g66
g88
tp798
I0
s(g193
g24
tp799
I0
s(g27
g176
tp800
I0
s(g139
g77
tp801
I0
s(g97
g130
tp802
I0
s(g122
g2
tp803
I0
s(g18
g75
tp804
I0
s(g91
g83
tp805
I0
s(g93
g66
tp806
I0
s(g41
g91
tp807
I0
s(g122
g75
tp808
I0
s(g326
g104
tp809
I0
s(g17
g152
tp810
I0
s(g77
g23
tp811
I0
s(g9
g2
tp812
I0
s(g79
g198
tp813
I0
s(g79
g91
tp814
I0
s(g95
g49
tp815
I0
s(g64
g104
tp816
I0
s(g20
g62
tp817
I0
s(g95
g160
tp818
I0
s(g122
g58
tp819
F0.35428571428571426
s(g68
g26
tp820
I0
s(g93
g45
tp821
I0
s(g107
g130
tp822
I0
s(g3
g20
tp823
I0
s(g43
g21
tp824
I0
s(g41
g62
tp825
I0
s(g109
g34
tp826
I0
s(g20
g64
tp827
I0
s(g36
g73
tp828
I0
s(g14
g73
tp829
I0
s(g122
g79
tp830
I0
s(g176
g107
tp831
I0
s(g115
g64
tp832
I0
s(g109
g223
tp833
I0
s(g140
g198
tp834
I0
s(g27
g27
tp835
F0.51605710932916093
s(g14
g99
tp836
I0
s(g109
g157
tp837
I0
s(g31
g97
tp838
I0
s(g95
g176
tp839
I0
s(g124
g95
tp840
I0
s(g326
g107
tp841
I0
s(g48
g64
tp842
I0
s(g122
g152
tp843
I0
s(g113
g95
tp844
I0
s(g24
g38
tp845
F0.37301587301587302
s(g140
g140
tp846
F0.57011603645814268
s(g38
g24
tp847
I0
s(g68
g12
tp848
I0
s(g3
g3
tp849
I0
s(g69
g176
tp850
I0
s(g68
g109
tp851
I0
s(g139
g91
tp852
I0
s(g43
g95
tp853
I0
s(g68
g36
tp854
I0
s(g73
g88
tp855
I0
s(g49
g115
tp856
I0
s(g88
g26
tp857
I0
s(g193
g72
tp858
I0
s(g198
g140
tp859
I0
s(g2
g97
tp860
I0
s(g124
g152
tp861
I0
s(g43
g46
tp862
I0
s(g193
g130
tp863
I0
s(g31
g45
tp864
I0
s(g56
g31
tp865
I0
s(g53
g48
tp866
I0
s(g119
g104
tp867
I0
s(g223
g23
tp868
I0
s(g48
g95
tp869
I0
s(g33
g14
tp870
I0
s(g41
g21
tp871
I0
s(g152
g56
tp872
I0
s(g140
g99
tp873
I0
s(g30
g124
tp874
I0
s(g56
g18
tp875
I0
s(g8
g124
tp876
I0
s(g107
g77
tp877
I0
s(g45
g152
tp878
I0
s(g124
g157
tp879
I0
s(g122
g54
tp880
I0
s(g109
g20
tp881
I0
s(g113
g11
tp882
I0
s(g11
g62
tp883
I0
s(g152
g143
tp884
I0
s(g15
g95
tp885
I0
s(g18
g113
tp886
I0
s(g119
g24
tp887
I0
s(g38
g53
tp888
I0
s(g238
g49
tp889
I0
s(g130
g31
tp890
I0
s(g23
g3
tp891
I0
s(g113
g27
tp892
I0
s(g95
g53
tp893
I0
s(g122
g223
tp894
I0
s(g43
g18
tp895
I0
s(g95
g107
tp896
I0
s(g152
g9
tp897
I0
s(g14
g34
tp898
I0
s(g15
g72
tp899
I0
s(g56
g75
tp900
I0
s(g113
g64
tp901
I0
s(g41
g46
tp902
I0
s(g24
g88
tp903
I0
s(g113
g75
tp904
I0
s(g113
g66
tp905
I0
s(g56
g56
tp906
F0.82119205298013243
s(g109
g49
tp907
I0
s(g139
g109
tp908
I0
s(g56
g21
tp909
I0
s(g18
g223
tp910
I0
s(g97
g15
tp911
I0
s(g20
g38
tp912
I0
s(g198
g56
tp913
I0
s(g198
g124
tp914
I0
s(g99
g115
tp915
I0
s(g43
g107
tp916
I0
s(g81
g130
tp917
I0
s(g69
g15
tp918
I0
s(g81
g36
tp919
I0
s(g119
g2
tp920
I0
s(g124
g107
tp921
I0
s(g17
g27
tp922
I0
s(g75
g81
tp923
I0
s(g64
g20
tp924
I0
s(g139
g34
tp925
I0
s(g69
g34
tp926
I0
s(g49
g9
tp927
I0
s(g79
g160
tp928
I0
s(g99
g41
tp929
I0
s(g115
g36
tp930
I0
s(g95
g20
tp931
I0
s(g99
g36
tp932
I0
s(g152
g49
tp933
I0
s(g24
g45
tp934
I0
s(g81
g33
tp935
I0
s(g17
g97
tp936
F0.34258103215545826
s(g53
g115
tp937
I0
s(g54
g115
tp938
I0
s(g124
g31
tp939
I0
s(g31
g193
tp940
I0
s(g97
g122
tp941
I0
s(g143
g15
tp942
I0
s(g124
g23
tp943
I0
s(g193
g113
tp944
I0
s(g326
g43
tp945
I0
s(g53
g119
tp946
I0
s(g12
g81
tp947
I0
s(g5
g122
tp948
I0
s(g14
g140
tp949
I0
s(g97
g83
tp950
I0
s(g45
g104
tp951
I0
s(g17
g99
tp952
I0
s(g139
g83
tp953
I0
s(g223
g5
tp954
I0
s(g20
g193
tp955
I0
s(g21
g2
tp956
I0
s(g62
g15
tp957
I0
s(g93
g88
tp958
I0
s(g21
g69
tp959
I0
s(g88
g49
tp960
I0
s(g18
g99
tp961
I0
s(g66
g157
tp962
I0
s(g30
g62
tp963
I0
s(g91
g48
tp964
I0
s(g140
g97
tp965
I0
s(g152
g11
tp966
I0
s(g56
g79
tp967
I0
s(g54
g56
tp968
I0
s(g198
g3
tp969
I0
s(g97
g109
tp970
I0
s(g20
g20
tp971
F0.99796867987812088
s(g72
g139
tp972
I0
s(g11
g79
tp973
I0
s(g41
g73
tp974
I0
s(g97
g14
tp975
I0
s(g49
g72
tp976
I0
s(g113
g152
tp977
I0
s(g238
g18
tp978
I0
s(g198
g97
tp979
I0
s(g58
g26
tp980
I0
s(g34
g3
tp981
I0
s(g139
g107
tp982
I0
s(g73
g95
tp983
I0
s(g119
g130
tp984
I0
s(g119
g107
tp985
I0
s(g130
g62
tp986
I0
s(g34
g139
tp987
I0
s(g31
g75
tp988
I0
s(g26
g2
tp989
I0
s(g326
g9
tp990
I0
s(g26
g11
tp991
I0
s(g176
g53
tp992
I0
s(g140
g58
tp993
I0
s(g27
g113
tp994
I0
s(g69
g54
tp995
I0
s(g6
g45
tp996
I0
s(g5
g79
tp997
I0
s(g104
g139
tp998
I0
s(g46
g99
tp999
I0
s(g68
g27
tp1000
I0
s(g41
g72
tp1001
I0
s(g140
g95
tp1002
I0
s(g49
g23
tp1003
I0
s(g139
g66
tp1004
I0
s(g176
g69
tp1005
I0
s(g27
g75
tp1006
I0
s(g31
g15
tp1007
I0
s(g48
g53
tp1008
I0
s(g15
g88
tp1009
I0
s(g122
g198
tp1010
I0
s(g15
g12
tp1011
I0
s(g27
g12
tp1012
I0
s(g122
g41
tp1013
I0
s(g30
g99
tp1014
I0
s(g68
g31
tp1015
I0
s(g58
g119
tp1016
I0
s(g68
g5
tp1017
I0
s(g75
g33
tp1018
I0
s(g69
g88
tp1019
I0
s(g95
g17
tp1020
I0
s(g152
g58
tp1021
I0
s(g91
g20
tp1022
I0
s(g83
g23
tp1023
I0
s(g3
g93
tp1024
I0
s(g140
g9
tp1025
I0
s(g26
g113
tp1026
I0
s(g139
g45
tp1027
F0.60850648863551127
s(g124
g24
tp1028
I0
s(g31
g24
tp1029
I0
s(g45
g8
tp1030
I0
s(g11
g24
tp1031
F0.43055555555555558
s(g3
g48
tp1032
I0
s(g43
g73
tp1033
I0
s(g41
g36
tp1034
I0
s(g18
g56
tp1035
I0
s(g15
g66
tp1036
I0
s(g64
g193
tp1037
I0
s(g49
g30
tp1038
I0
s(g56
g119
tp1039
I0
s(g104
g45
tp1040
I0
s(g18
g46
tp1041
I0
s(g9
g11
tp1042
I0
s(g48
g45
tp1043
I0
s(g14
g14
tp1044
F0.99519545752347682
s(g143
g143
tp1045
I0
s(g157
g119
tp1046
I0
s(g104
g31
tp1047
I0
s(g104
g79
tp1048
I0
s(g38
g79
tp1049
I0
s(g62
g5
tp1050
I0
s(g81
g17
tp1051
I0
s(g139
g72
tp1052
I0
s(g139
g26
tp1053
I0
s(g238
g15
tp1054
I0
s(g83
g18
tp1055
I0
s(g107
g64
tp1056
I0
s(g45
g91
tp1057
I0
s(g115
g41
tp1058
I0
s(g53
g124
tp1059
I0
s(g11
g104
tp1060
I0
s(g109
g45
tp1061
I0
s(g119
g238
tp1062
I0
s(g157
g95
tp1063
I0
s(g43
g15
tp1064
I0
s(g139
g152
tp1065
I0
s(g9
g176
tp1066
I0
s(g79
g107
tp1067
I0
s(g109
g66
tp1068
I0
s(g58
g104
tp1069
I0
s(g62
g20
tp1070
I0
s(g2
g8
tp1071
F0.4632768361581921
s(g27
g124
tp1072
I0
s(g83
g97
tp1073
I0
s(g140
g21
tp1074
I0
s(g34
g66
tp1075
I0
s(g30
g24
tp1076
I0
s(g56
g12
tp1077
I0
s(g54
g49
tp1078
I0
s(g62
g38
tp1079
I0
s(g223
g93
tp1080
I0
s(g160
g36
tp1081
F0.55836286726877782
s(g23
g97
tp1082
I0
s(g72
g24
tp1083
I0
s(g43
g66
tp1084
I0
s(g6
g198
tp1085
I0
s(g223
g68
tp1086
I0
s(g95
g26
tp1087
I0
s(g15
g223
tp1088
F0.082665942717524088
s(g54
g54
tp1089
F0.47530864197530864
s(g119
g97
tp1090
I0
s(g198
g81
tp1091
I0
s(g43
g79
tp1092
I0
s(g17
g58
tp1093
I0
s(g34
g12
tp1094
I0
s(g45
g139
tp1095
I0
s(g113
g93
tp1096
I0
s(g20
g43
tp1097
I0
s(g91
g5
tp1098
I0
s(g56
g41
tp1099
I0
s(g38
g115
tp1100
I0
s(g11
g140
tp1101
I0
s(g2
g2
tp1102
F0.99514706752677995
s(g12
g33
tp1103
I0
s(g23
g122
tp1104
I0
s(g38
g62
tp1105
I0
s(g115
g160
tp1106
I0
s(g152
g62
tp1107
I0
s(g45
g81
tp1108
I0
s(g3
g23
tp1109
I0
s(g83
g113
tp1110
I0
s(g83
g31
tp1111
I0
s(g68
g68
tp1112
F0.99093499261022411
s(g24
g107
tp1113
I0
s(g18
g77
tp1114
I0
s(g143
g36
tp1115
I0
s(g139
g176
tp1116
I0
s(g143
g130
tp1117
I0
s(g12
g34
tp1118
I0
s(g75
g113
tp1119
I0
s(g72
g238
tp1120
I0
s(g11
g93
tp1121
I0
s(g77
g20
tp1122
I0
s(g104
g8
tp1123
I0
s(g143
g152
tp1124
I0
s(g95
g115
tp1125
I0
s(g88
g66
tp1126
I0
s(g104
g115
tp1127
I0
s(g46
g14
tp1128
I0
s(g124
g77
tp1129
I0
s(g73
g152
tp1130
I0
s(g53
g33
tp1131
I0
s(g58
g79
tp1132
I0
s(g115
g198
tp1133
I0
s(g34
g15
tp1134
I0
s(g160
g15
tp1135
I0
s(g33
g48
tp1136
I0
s(g99
g66
tp1137
I0
s(g53
g109
tp1138
I0
s(g66
g152
tp1139
I0
s(g66
g11
tp1140
I0
s(g6
g6
tp1141
F0.99585751175470905
s(g130
g3
tp1142
I0
s(g95
g3
tp1143
I0
s(g119
g198
tp1144
I0
s(g41
g79
tp1145
I0
s(g152
g140
tp1146
I0
s(g48
g104
tp1147
I0
s(g38
g46
tp1148
I0
s(g58
g21
tp1149
I0
s(g12
g95
tp1150
I0
s(g53
g95
tp1151
I0
s(g30
g75
tp1152
I0
s(g5
g34
tp1153
I0
s(g15
g18
tp1154
I0
s(g41
g326
tp1155
I0
s(g72
g17
tp1156
I0
s(g193
g326
tp1157
I0
s(g140
g15
tp1158
I0
s(g160
g81
tp1159
I0
s(g27
g66
tp1160
I0
s(g68
g6
tp1161
I0
s(g41
g193
tp1162
I0
s(g20
g45
tp1163
I0
s(g17
g21
tp1164
I0
s(g72
g18
tp1165
I0
s(g122
g140
tp1166
I0
s(g14
g38
tp1167
I0
s(g14
g81
tp1168
I0
s(g58
g77
tp1169
I0
s(g326
g143
tp1170
I0
s(g326
g2
tp1171
I0
s(g140
g88
tp1172
I0
s(g115
g107
tp1173
F0.99411804938102732
s(g14
g72
tp1174
I0
s(g24
g26
tp1175
I0
s(g45
g198
tp1176
I0
s(g115
g56
tp1177
I0
s(g17
g130
tp1178
I0
s(g140
g49
tp1179
I0
s(g66
g104
tp1180
I0
s(g157
g139
tp1181
I0
s(g12
g326
tp1182
I0
s(g143
g91
tp1183
I0
s(g24
g11
tp1184
I0
s(g93
g23
tp1185
I0
s(g176
g79
tp1186
I0
s(g41
g93
tp1187
I0
s(g30
g56
tp1188
I0
s(g130
g38
tp1189
I0
s(g30
g27
tp1190
I0
s(g68
g58
tp1191
I0
s(g46
g238
tp1192
I0
s(g20
g93
tp1193
I0
s(g53
g97
tp1194
I0
s(g62
g79
tp1195
I0
s(g99
g88
tp1196
I0
s(g49
g21
tp1197
F0.45454545454545453
s(g140
g83
tp1198
I0
s(g79
g104
tp1199
I0
s(g88
g15
tp1200
I0
s(g193
g157
tp1201
I0
s(g88
g238
tp1202
I0
s(g326
g198
tp1203
I0
s(g81
g5
tp1204
I0
s(g38
g140
tp1205
I0
s(g140
g81
tp1206
I0
s(g43
g193
tp1207
I0
s(g75
g130
tp1208
I0
s(g66
g107
tp1209
I0
s(g62
g69
tp1210
I0
s(g223
g77
tp1211
I0
s(g107
g38
tp1212
I0
s(g130
g8
tp1213
I0
s(g193
g20
tp1214
I0
s(g36
g3
tp1215
I0
s(g91
g95
tp1216
I0
s(g72
g104
tp1217
I0
s(g53
g75
tp1218
I0
s(g139
g30
tp1219
I0
s(g41
g11
tp1220
I0
s(g99
g193
tp1221
I0
s(g15
g75
tp1222
I0
s(g18
g17
tp1223
I0
s(g24
g21
tp1224
I0
s(g160
g8
tp1225
I0
s(g5
g21
tp1226
I0
s(g91
g238
tp1227
I0
s(g83
g26
tp1228
I0
s(g45
g238
tp1229
I0
s(g21
g238
tp1230
I0
s(g198
g95
tp1231
I0
s(g193
g2
tp1232
F0.96049938367855991
s(g9
g152
tp1233
I0
s(g6
g69
tp1234
I0
s(g130
g14
tp1235
I0
s(g193
g193
tp1236
F0.49693251533742333
s(g11
g97
tp1237
I0
s(g36
g83
tp1238
I0
s(g14
g8
tp1239
I0
s(g107
g20
tp1240
I0
s(g72
g113
tp1241
I0
s(g91
g11
tp1242
I0
s(g34
g176
tp1243
I0
s(g88
g36
tp1244
I0
s(g2
g130
tp1245
I0
s(g66
g15
tp1246
I0
s(g17
g15
tp1247
I0
s(g8
g99
tp1248
I0
s(g73
g33
tp1249
I0
s(g75
g2
tp1250
I0
s(g143
g99
tp1251
I0
s(g238
g30
tp1252
I0
s(g21
g140
tp1253
I0
s(g18
g130
tp1254
I0
s(g27
g238
tp1255
I0
s(g109
g176
tp1256
I0
s(g14
g143
tp1257
I0
s(g81
g83
tp1258
I0
s(g46
g107
tp1259
I0
s(g2
g143
tp1260
I0
s(g31
g58
tp1261
I0
s(g143
g9
tp1262
I0
s(g115
g3
tp1263
I0
s(g99
g31
tp1264
I0
s(g238
g31
tp1265
I0
s(g6
g5
tp1266
I0
s(g21
g36
tp1267
I0
s(g36
g113
tp1268
I0
s(g69
g69
tp1269
F0.65975103734439833
s(g66
g238
tp1270
I0
s(g176
g26
tp1271
I0
s(g77
g2
tp1272
I0
s(g99
g15
tp1273
I0
s(g6
g27
tp1274
I0
s(g58
g88
tp1275
I0
s(g152
g109
tp1276
I0
s(g66
g95
tp1277
I0
s(g140
g130
tp1278
I0
s(g23
g75
tp1279
I0
s(g326
g48
tp1280
I0
s(g124
g93
tp1281
I0
s(g64
g124
tp1282
I0
s(g26
g48
tp1283
I0
s(g160
g62
tp1284
I0
s(g77
g124
tp1285
I0
s(g48
g68
tp1286
I0
s(g73
g48
tp1287
I0
s(g109
g130
tp1288
I0
s(g139
g119
tp1289
I0
s(g30
g18
tp1290
I0
s(g69
g130
tp1291
I0
s(g104
g36
tp1292
I0
s(g83
g124
tp1293
I0
s(g14
g79
tp1294
F0.4731182795698925
s(g66
g3
tp1295
I0
s(g68
g62
tp1296
F0.45539280958721706
s(g36
g2
tp1297
I0
s(g157
g113
tp1298
I0
s(g83
g79
tp1299
I0
s(g5
g83
tp1300
I0
s(g95
g41
tp1301
I0
s(g8
g91
tp1302
I0
s(g23
g64
tp1303
I0
s(g130
g198
tp1304
I0
s(g36
g326
tp1305
I0
s(g81
g58
tp1306
I0
s(g18
g36
tp1307
I0
s(g58
g53
tp1308
I0
s(g93
g69
tp1309
I0
s(g238
g14
tp1310
I0
s(g2
g75
tp1311
I0
s(g124
g326
tp1312
I0
s(g73
g326
tp1313
I0
s(g9
g68
tp1314
I0
s(g143
g139
tp1315
I0
s(g33
g6
tp1316
I0
s(g31
g81
tp1317
I0
s(g54
g72
tp1318
I0
s(g56
g97
tp1319
I0
s(g53
g198
tp1320
I0
s(g99
g97
tp1321
I0
s(g11
g43
tp1322
I0
s(g104
g56
tp1323
I0
s(g81
g6
tp1324
F0.9815090197720987
s(g93
g46
tp1325
I0
s(g107
g91
tp1326
I0
s(g107
g198
tp1327
I0
s(g5
g223
tp1328
I0
s(g72
g122
tp1329
I0
s(g66
g75
tp1330
I0
s(g160
g20
tp1331
I0
s(g160
g27
tp1332
I0
s(g34
g38
tp1333
I0
s(g88
g130
tp1334
I0
s(g43
g115
tp1335
I0
s(g53
g91
tp1336
I0
s(g23
g107
tp1337
I0
s(g73
g64
tp1338
I0
s(g24
g8
tp1339
I0
s(g12
g48
tp1340
I0
s(g41
g77
tp1341
I0
s(g109
g41
tp1342
I0
s(g26
g160
tp1343
I0
s(g24
g53
tp1344
I0
s(g140
g326
tp1345
I0
s(g97
g176
tp1346
F0.66666666666666663
s(g38
g93
tp1347
I0
s(g160
g6
tp1348
I0
s(g160
g193
tp1349
I0
s(g23
g53
tp1350
I0
s(g77
g62
tp1351
I0
s(g326
g81
tp1352
I0
s(g157
g176
tp1353
I0
s(g53
g143
tp1354
I0
s(g88
g2
tp1355
I0
s(g326
g119
tp1356
I0
s(g6
g56
tp1357
I0
s(g20
g124
tp1358
I0
s(g30
g17
tp1359
I0
s(g27
g107
tp1360
I0
s(g53
g31
tp1361
I0
s(g152
g139
tp1362
I0
s(g30
g23
tp1363
I0
s(g88
g143
tp1364
I0
s(g79
g48
tp1365
I0
s(g140
g31
tp1366
I0
s(g56
g83
tp1367
I0
s(g140
g143
tp1368
I0
s(g238
g238
tp1369
F0.70485264258166846
s(g12
g15
tp1370
I0
s(g15
g15
tp1371
F0.67816091954022983
s(g45
g143
tp1372
I0
s(g58
g99
tp1373
I0
s(g122
g107
tp1374
I0
s(g73
g20
tp1375
I0
s(g193
g30
tp1376
I0
s(g68
g53
tp1377
I0
s(g46
g104
tp1378
I0
s(g18
g238
tp1379
I0
s(g3
g107
tp1380
I0
s(g11
g115
tp1381
I0
s(g152
g18
tp1382
I0
s(g77
g104
tp1383
I0
s(g157
g152
tp1384
I0
s(g115
g53
tp1385
I0
s(g113
g33
tp1386
I0
s(g79
g31
tp1387
I0
s(g21
g24
tp1388
I0
s(g91
g109
tp1389
I0
s(g31
g9
tp1390
I0
s(g23
g81
tp1391
I0
s(g73
g193
tp1392
I0
s(g38
g31
tp1393
I0
s(g14
g223
tp1394
I0
s(g46
g113
tp1395
I0
s(g79
g83
tp1396
I0
s(g176
g31
tp1397
I0
s(g68
g38
tp1398
I0
s(g72
g130
tp1399
I0
s(g176
g66
tp1400
I0
s(g33
g72
tp1401
I0
s(g97
g119
tp1402
I0
s(g326
g75
tp1403
I0
s(g31
g46
tp1404
I0
s(g9
g115
tp1405
I0
s(g31
g33
tp1406
I0
s(g21
g56
tp1407
I0
s(g160
g48
tp1408
I0
s(g140
g69
tp1409
I0
s(g193
g115
tp1410
I0
s(g107
g5
tp1411
I0
s(g88
g30
tp1412
I0
s(g31
g326
tp1413
I0
s(g30
g41
tp1414
I0
s(g75
g68
tp1415
I0
s(g23
g326
tp1416
I0
s(g20
g157
tp1417
I0
s(g130
g223
tp1418
I0
s(g48
g38
tp1419
I0
s(g26
g107
tp1420
I0
s(g176
g15
tp1421
I0
s(g83
g49
tp1422
I0
s(g124
g36
tp1423
I0
s(g27
g31
tp1424
I0
s(g88
g88
tp1425
F0.74582083154736389
s(g23
g31
tp1426
I0
s(g17
g326
tp1427
I0
s(g26
g20
tp1428
I0
s(g83
g160
tp1429
I0
s(g20
g198
tp1430
I0
s(g24
g193
tp1431
I0
s(g139
g9
tp1432
I0
s(g18
g64
tp1433
I0
s(g26
g54
tp1434
I0
s(g326
g30
tp1435
I0
s(g198
g64
tp1436
I0
s(g3
g54
tp1437
I0
s(g30
g49
tp1438
I0
s(g58
g18
tp1439
I0
s(g198
g91
tp1440
I0
s(g91
g113
tp1441
I0
s(g143
g49
tp1442
I0
s(g24
g15
tp1443
I0
s(g12
g21
tp1444
I0
s(g26
g223
tp1445
I0
s(g81
g23
tp1446
I0
s(g79
g130
tp1447
I0
s(g11
g6
tp1448
I0
s(g77
g113
tp1449
I0
s(g223
g193
tp1450
I0
s(g54
g109
tp1451
F0.98519895850452621
s(g34
g198
tp1452
I0
s(g15
g122
tp1453
I0
s(g83
g119
tp1454
I0
s(g97
g139
tp1455
I0
s(g238
g119
tp1456
I0
s(g238
g46
tp1457
I0
s(g18
g97
tp1458
F0.13710125763243597
s(g88
g97
tp1459
I0
s(g18
g23
tp1460
I0
s(g115
g115
tp1461
F0.50292397660818711
s(g12
g9
tp1462
I0
s(g58
g41
tp1463
I0
s(g56
g48
tp1464
I0
s(g81
g140
tp1465
I0
s(g66
g38
tp1466
I0
s(g99
g152
tp1467
I0
s(g11
g21
tp1468
I0
s(g157
g3
tp1469
I0
s(g21
g54
tp1470
I0
s(g5
g66
tp1471
I0
s(g124
g124
tp1472
F0.21397379912663755
s(g107
g56
tp1473
I0
s(g15
g41
tp1474
I0
s(g88
g24
tp1475
I0
s(g139
g14
tp1476
I0
s(g24
g91
tp1477
I0
s(g176
g30
tp1478
I0
s(g198
g88
tp1479
I0
s(g83
g68
tp1480
I0
s(g81
g68
tp1481
I0
s(g49
g152
tp1482
I0
s(g27
g130
tp1483
I0
s(g9
g33
tp1484
F0.57006405221264733
s(g176
g9
tp1485
I0
s(g88
g139
tp1486
I0
s(g104
g46
tp1487
I0
s(g62
g30
tp1488
I0
s(g97
g34
tp1489
I0
s(g54
g152
tp1490
I0
s(g97
g69
tp1491
I0
s(g43
g48
tp1492
I0
s(g43
g62
tp1493
I0
s(g2
g27
tp1494
I0
s(g14
g11
tp1495
I0
s(g45
g12
tp1496
I0
s(g77
g6
tp1497
I0
s(g26
g66
tp1498
I0
s(g113
g31
tp1499
I0
s(g104
g14
tp1500
I0
s(g124
g53
tp1501
I0
s(g8
g18
tp1502
I0
s(g119
g3
tp1503
I0
s(g79
g27
tp1504
I0
s(g6
g91
tp1505
I0
s(g11
g113
tp1506
I0
s(g104
g83
tp1507
I0
s(g17
g12
tp1508
I0
s(g130
g26
tp1509
I0
s(g8
g77
tp1510
I0
s(g48
g143
tp1511
I0
s(g49
g36
tp1512
I0
s(g143
g124
tp1513
I0
s(g45
g24
tp1514
I0
s(g53
g58
tp1515
I0
s(g26
g15
tp1516
I0
s(g3
g27
tp1517
I0
s(g58
g23
tp1518
I0
s(g160
g14
tp1519
I0
s(g18
g140
tp1520
I0
s(g75
g27
tp1521
I0
s(g3
g15
tp1522
I0
s(g14
g56
tp1523
I0
s(g43
g56
tp1524
I0
s(g54
g91
tp1525
I0
s(g48
g62
tp1526
I0
s(g95
g198
tp1527
I0
s(g77
g58
tp1528
I0
s(g143
g223
tp1529
I0
s(g48
g130
tp1530
I0
s(g62
g193
tp1531
I0
s(g64
g5
tp1532
I0
s(g46
g18
tp1533
I0
s(g95
g34
tp1534
I0
s(g223
g79
tp1535
I0
s(g12
g193
tp1536
I0
s(g139
g64
tp1537
I0
s(g54
g75
tp1538
F0.35097855131075317
s(g23
g45
tp1539
I0
s(g119
g140
tp1540
I0
s(g20
g69
tp1541
I0
s(g15
g160
tp1542
I0
s(g34
g5
tp1543
I0
s(g107
g152
tp1544
I0
s(g46
g160
tp1545
I0
s(g152
g17
tp1546
I0
s(g17
g72
tp1547
I0
s(g48
g198
tp1548
I0
s(g73
g62
tp1549
I0
s(g23
g83
tp1550
I0
s(g93
g48
tp1551
I0
s(g88
g326
tp1552
I0
s(g99
g122
tp1553
I0
s(g23
g198
tp1554
I0
s(g6
g193
tp1555
I0
s(g81
g64
tp1556
I0
s(g152
g73
tp1557
I0
s(g124
g46
tp1558
I0
s(g68
g115
tp1559
I0
s(g104
g77
tp1560
I0
s(g34
g8
tp1561
I0
s(g119
g26
tp1562
I0
s(g69
g8
tp1563
I0
s(g99
g68
tp1564
I0
s(g238
g66
tp1565
I0
s(g97
g97
tp1566
F0.13636363636363638
s(g54
g107
tp1567
I0
s(g15
g152
tp1568
I0
s(g88
g77
tp1569
F0.94365899566854416
s(g91
g18
tp1570
I0
s(g33
g152
tp1571
I0
s(g11
g73
tp1572
I0
s(g49
g97
tp1573
I0
s(g91
g46
tp1574
I0
s(g79
g68
tp1575
I0
s(g62
g54
tp1576
I0
s(g77
g41
tp1577
I0
s(g46
g176
tp1578
I0
s(g66
g62
tp1579
I0
s(g68
g3
tp1580
I0
s(g75
g91
tp1581
I0
s(g157
g20
tp1582
I0
s(g20
g115
tp1583
I0
s(g5
g104
tp1584
I0
s(g66
g33
tp1585
I0
s(g107
g41
tp1586
I0
s(g21
g17
tp1587
I0
s(g93
g17
tp1588
I0
s(g115
g326
tp1589
I0
s(g104
g12
tp1590
I0
s(g72
g99
tp1591
I0
s(g73
g18
tp1592
I0
s(g14
g12
tp1593
I0
s(g109
g107
tp1594
I0
s(g238
g41
tp1595
I0
s(g193
g53
tp1596
I0
s(g238
g36
tp1597
I0
s(g97
g238
tp1598
I0
s(g43
g64
tp1599
I0
s(g124
g21
tp1600
I0
s(g160
g77
tp1601
I0
s(g45
g83
tp1602
I0
s(g2
g9
tp1603
I0
s(g152
g75
tp1604
I0
s(g97
g95
tp1605
I0
s(g79
g152
tp1606
I0
s(g24
g68
tp1607
F0.99061797768266524
s(g99
g5
tp1608
I0
s(g9
g6
tp1609
I0
s(g83
g3
tp1610
I0
s(g152
g124
tp1611
I0
s(g130
g34
tp1612
I0
s(g34
g21
tp1613
I0
s(g72
g46
tp1614
F0.98507462686567171
s(g107
g160
tp1615
I0
s(g41
g43
tp1616
I0
s(g62
g81
tp1617
I0
s(g139
g115
tp1618
I0
s(g56
g64
tp1619
I0
s(g48
g109
tp1620
I0
s(g113
g15
tp1621
I0
s(g26
g17
tp1622
I0
s(g49
g79
tp1623
I0
s(g95
g223
tp1624
I0
s(g99
g95
tp1625
I0
s(g140
g30
tp1626
I0
s(g2
g58
tp1627
I0
s(g99
g140
tp1628
I0
s(g17
g68
tp1629
I0
s(g8
g24
tp1630
I0
s(g223
g73
tp1631
I0
s(g69
g93
tp1632
I0
s(g17
g77
tp1633
I0
s(g77
g43
tp1634
I0
s(g21
g9
tp1635
I0
s(g5
g18
tp1636
I0
s(g26
g72
tp1637
I0
s(g58
g5
tp1638
I0
s(g27
g193
tp1639
I0
s(g88
g58
tp1640
I0
s(g81
g113
tp1641
I0
s(g130
g88
tp1642
I0
s(g2
g6
tp1643
I0
s(g223
g46
tp1644
I0
s(g45
g77
tp1645
I0
s(g62
g97
tp1646
I0
s(g24
g152
tp1647
I0
s(g21
g41
tp1648
I0
s(g48
g33
tp1649
I0
s(g9
g91
tp1650
I0
s(g12
g99
tp1651
I0
s(g18
g107
tp1652
I0
s(g326
g122
tp1653
I0
s(g26
g238
tp1654
I0
s(g91
g26
tp1655
I0
s(g193
g140
tp1656
I0
s(g54
g99
tp1657
I0
s(g49
g33
tp1658
I0
s(g2
g69
tp1659
I0
s(g15
g238
tp1660
I0
s(g157
g53
tp1661
I0
s(g43
g157
tp1662
I0
s(g3
g193
tp1663
I0
s(g193
g36
tp1664
I0
s(g54
g157
tp1665
I0
s(g41
g17
tp1666
I0
s(g122
g326
tp1667
I0
s(g122
g17
tp1668
I0
s(g46
g9
tp1669
I0
s(g79
g56
tp1670
I0
s(g38
g119
tp1671
I0
s(g77
g72
tp1672
I0
s(g75
g124
tp1673
I0
s(g113
g3
tp1674
I0
s(g17
g14
tp1675
I0
s(g58
g124
tp1676
I0
s(g41
g18
tp1677
I0
s(g43
g198
tp1678
I0
s(g104
g20
tp1679
I0
s(g5
g238
tp1680
I0
s(g64
g95
tp1681
I0
s(g33
g99
tp1682
I0
s(g198
g107
tp1683
I0
s(g104
g72
tp1684
I0
s(g6
g97
tp1685
I0
s(g91
g8
tp1686
I0
s(g139
g2
tp1687
I0
s(g77
g95
tp1688
I0
s(g130
g157
tp1689
F0.16346153846153846
s(g72
g68
tp1690
I0
s(g107
g8
tp1691
I0
s(g93
g119
tp1692
I0
s(g49
g5
tp1693
I0
s(g113
g83
tp1694
I0
s(g48
g83
tp1695
I0
s(g91
g157
tp1696
I0
s(g54
g104
tp1697
I0
s(g46
g26
tp1698
I0
s(g143
g41
tp1699
I0
s(g130
g176
tp1700
I0
s(g72
g93
tp1701
I0
s(g33
g43
tp1702
I0
s(g77
g46
tp1703
I0
s(g124
g38
tp1704
I0
s(g95
g36
tp1705
I0
s(g113
g18
tp1706
I0
s(g30
g140
tp1707
I0
s(g115
g130
tp1708
I0
s(g139
g12
tp1709
I0
s(g119
g58
tp1710
I0
s(g15
g198
tp1711
I0
s(g43
g6
tp1712
I0
s(g83
g64
tp1713
I0
s(g68
g198
tp1714
I0
s(g9
g81
tp1715
I0
s(g27
g69
tp1716
I0
s(g93
g73
tp1717
I0
s(g46
g140
tp1718
I0
s(g36
g88
tp1719
I0
s(g122
g49
tp1720
I0
s(g122
g160
tp1721
I0
s(g2
g56
tp1722
I0
s(g6
g72
tp1723
I0
s(g5
g81
tp1724
I0
s(g75
g93
tp1725
I0
s(g27
g93
tp1726
I0
s(g3
g326
tp1727
I0
s(g58
g6
tp1728
I0
s(g3
g33
tp1729
I0
s(g176
g95
tp1730
I0
s(g73
g139
tp1731
I0
s(g66
g119
tp1732
I0
s(g27
g160
tp1733
I0
s(g48
g30
tp1734
I0
s(g33
g18
tp1735
I0
s(g26
g30
tp1736
F1
s(g113
g113
tp1737
F0.62844844453140281
s(g8
g33
tp1738
I0
s(g30
g115
tp1739
I0
s(g160
g91
tp1740
I0
s(g36
g139
tp1741
I0
s(g9
g5
tp1742
I0
s(g5
g152
tp1743
I0
s(g34
g223
tp1744
I0
s(g107
g53
tp1745
I0
s(g6
g115
tp1746
I0
s(g139
g95
tp1747
I0
s(g45
g36
tp1748
I0
s(g73
g6
tp1749
I0
s(g68
g152
tp1750
I0
s(g93
g30
tp1751
I0
s(g68
g143
tp1752
I0
s(g66
g18
tp1753
I0
s(g45
g176
tp1754
F0.16092981671881987
s(g30
g139
tp1755
I0
s(g41
g113
tp1756
I0
s(g75
g62
tp1757
I0
s(g2
g99
tp1758
I0
s(g17
g198
tp1759
I0
s(g38
g107
tp1760
I0
s(g83
g109
tp1761
I0
s(g95
g97
tp1762
I0
s(g62
g72
tp1763
I0
s(g107
g31
tp1764
I0
s(g49
g198
tp1765
I0
s(g68
g81
tp1766
I0
s(g69
g26
tp1767
I0
s(g124
g130
tp1768
I0
s(g79
g176
tp1769
I0
s(g79
g54
tp1770
I0
s(g58
g11
tp1771
I0
s(g176
g14
tp1772
I0
s(g33
g46
tp1773
I0
s(g119
g91
tp1774
I0
s(g5
g198
tp1775
I0
s(g91
g91
tp1776
F0.91631640996131192
s(g176
g238
tp1777
I0
s(g2
g43
tp1778
I0
s(g193
g99
tp1779
I0
s(g46
g109
tp1780
I0
s(g99
g9
tp1781
I0
s(g64
g41
tp1782
F0.35443037974683544
s(g21
g119
tp1783
I0
s(g93
g326
tp1784
I0
s(g97
g45
tp1785
I0
s(g3
g8
tp1786
I0
s(g81
g34
tp1787
I0
s(g33
g31
tp1788
I0
s(g143
g24
tp1789
I0
s(g18
g95
tp1790
I0
s(g26
g139
tp1791
I0
s(g238
g6
tp1792
I0
s(g2
g140
tp1793
I0
s(g54
g3
tp1794
I0
s(g119
g62
tp1795
I0
s(g8
g107
tp1796
I0
s(g43
g54
tp1797
I0
s(g66
g79
tp1798
I0
s(g2
g107
tp1799
I0
s(g140
g20
tp1800
I0
s(g88
g6
tp1801
I0
s(g49
g14
tp1802
I0
s(g12
g124
tp1803
I0
s(g91
g68
tp1804
I0
s(g26
g115
tp1805
I0
s(g18
g73
tp1806
I0
s(g49
g53
tp1807
I0
s(g88
g3
tp1808
I0
s(g23
g43
tp1809
I0
s(g3
g97
tp1810
I0
s(g81
g119
tp1811
I0
s(g104
g5
tp1812
I0
s(g95
g79
tp1813
I0
s(g46
g77
tp1814
I0
s(g238
g326
tp1815
I0
s(g115
g93
tp1816
I0
s(g5
g139
tp1817
I0
s(g8
g88
tp1818
I0
s(g11
g14
tp1819
I0
s(g27
g9
tp1820
I0
s(g33
g113
tp1821
I0
s(g115
g223
tp1822
I0
s(g115
g5
tp1823
I0
s(g99
g119
tp1824
I0
s(g23
g20
tp1825
I0
s(g54
g36
tp1826
I0
s(g64
g54
tp1827
I0
s(g66
g54
tp1828
I0
s(g53
g66
tp1829
I0
s(g53
g152
tp1830
I0
s(g198
g6
tp1831
I0
s(g20
g223
tp1832
I0
s(g140
g238
tp1833
I0
s(g9
g107
tp1834
I0
s(g193
g49
tp1835
I0
s(g20
g12
tp1836
I0
s(g53
g68
tp1837
I0
s(g56
g124
tp1838
I0
s(g54
g81
tp1839
I0
s(g54
g38
tp1840
I0
s(g152
g97
tp1841
I0
s(g124
g122
tp1842
I0
s(g21
g46
tp1843
I0
s(g83
g130
tp1844
I0
s(g53
g193
tp1845
I0
s(g157
g66
tp1846
I0
s(g97
g48
tp1847
I0
s(g26
g91
tp1848
I0
s(g77
g88
tp1849
I0
s(g36
g140
tp1850
I0
s(g152
g3
tp1851
I0
s(g6
g77
tp1852
I0
s(g238
g88
tp1853
F0.99173577420159764
s(g223
g9
tp1854
I0
s(g30
g8
tp1855
I0
s(g223
g130
tp1856
F1
s(g9
g18
tp1857
I0
s(g79
g11
tp1858
I0
s(g130
g43
tp1859
I0
s(g72
g34
tp1860
I0
s(g48
g18
tp1861
I0
s(g104
g88
tp1862
I0
s(g26
g97
tp1863
I0
s(g75
g26
tp1864
I0
s(g14
g95
tp1865
I0
s(g26
g62
tp1866
I0
s(g75
g66
tp1867
I0
s(g45
g223
tp1868
I0
s(g238
g58
tp1869
I0
s(g97
g104
tp1870
I0
s(g143
g93
tp1871
I0
s(g8
g95
tp1872
I0
s(g36
g238
tp1873
I0
s(g8
g176
tp1874
I0
s(g14
g238
tp1875
I0
s(g30
g14
tp1876
I0
s(g34
g53
tp1877
I0
s(g56
g99
tp1878
I0
s(g64
g24
tp1879
I0
s(g3
g119
tp1880
I0
s(g113
g143
tp1881
F0.041095890410958902
s(g72
g53
tp1882
I0
s(g75
g53
tp1883
I0
s(g14
g5
tp1884
I0
s(g91
g6
tp1885
I0
s(g77
g36
tp1886
I0
s(g77
g91
tp1887
F0.99141450547650978
s(g122
g36
tp1888
I0
s(g64
g73
tp1889
I0
s(g12
g26
tp1890
I0
s(g160
g326
tp1891
I0
s(g48
g88
tp1892
I0
s(g58
g33
tp1893
F0.97228430934286991
s(g143
g69
tp1894
I0
s(g152
g99
tp1895
I0
s(g48
g66
tp1896
I0
s(g34
g104
tp1897
I0
s(g62
g45
tp1898
I0
s(g8
g198
tp1899
I0
s(g49
g18
tp1900
I0
s(g33
g223
tp1901
I0
s(g152
g38
tp1902
I0
s(g66
g124
tp1903
F0.010136902292527191
s(g91
g41
tp1904
I0
s(g53
g107
tp1905
I0
s(g41
g139
tp1906
I0
s(g99
g30
tp1907
I0
s(g62
g11
tp1908
I0
s(g109
g73
tp1909
I0
s(g130
g9
tp1910
I0
s(g113
g14
tp1911
I0
s(g115
g46
tp1912
I0
s(g15
g139
tp1913
I0
s(g130
g33
tp1914
I0
s(g5
g3
tp1915
I0
s(g91
g77
tp1916
I0
s(g9
g95
tp1917
I0
s(g68
g33
tp1918
I0
s(g77
g130
tp1919
I0
s(g198
g93
tp1920
I0
s(g36
g53
tp1921
I0
s(g27
g30
tp1922
I0
s(g30
g9
tp1923
I0
s(g45
g38
tp1924
I0
s(g58
g109
tp1925
I0
s(g38
g113
tp1926
I0
s(g124
g176
tp1927
I0
s(g24
g95
tp1928
I0
s(g157
g27
tp1929
I0
s(g9
g143
tp1930
I0
s(g56
g9
tp1931
I0
s(g91
g97
tp1932
I0
s(g5
g115
tp1933
I0
s(g176
g27
tp1934
I0
s(g3
g152
tp1935
I0
s(g54
g41
tp1936
I0
s(g43
g45
tp1937
I0
s(g95
g27
tp1938
I0
s(g69
g56
tp1939
I0
s(g36
g64
tp1940
I0
s(g56
g66
tp1941
I0
s(g14
g64
tp1942
I0
s(g23
g223
tp1943
I0
s(g238
g54
tp1944
I0
s(g33
g326
tp1945
I0
s(g93
g68
tp1946
I0
s(g193
g21
tp1947
I0
s(g69
g81
tp1948
I0
s(g14
g107
tp1949
I0
s(g130
g23
tp1950
I0
s(g95
g77
tp1951
I0
s(g176
g41
tp1952
I0
s(g62
g139
tp1953
I0
s(g27
g48
tp1954
I0
s(g79
g33
tp1955
I0
s(g6
g41
tp1956
I0
s(g79
g38
tp1957
I0
s(g45
g124
tp1958
I0
s(g6
g36
tp1959
I0
s(g157
g91
tp1960
I0
s(g143
g157
tp1961
I0
s(g17
g109
tp1962
I0
s(g6
g109
tp1963
I0
s(g72
g36
tp1964
I0
s(g107
g30
tp1965
I0
s(g45
g75
tp1966
I0
s(g198
g45
tp1967
I0
s(g109
g140
tp1968
I0
s(g11
g15
tp1969
I0
s(g130
g107
tp1970
I0
s(g88
g157
tp1971
F0.44827586206896552
s(g12
g119
tp1972
I0
s(g58
g115
tp1973
I0
s(g23
g26
tp1974
I0
s(g160
g143
tp1975
I0
s(g99
g64
tp1976
I0
s(g238
g2
tp1977
I0
s(g68
g48
tp1978
I0
s(g62
g109
tp1979
I0
s(g97
g38
tp1980
I0
s(g24
g41
tp1981
I0
s(g91
g88
tp1982
I0
s(g130
g30
tp1983
I0
s(g75
g23
tp1984
I0
s(g69
g53
tp1985
I0
s(g107
g26
tp1986
I0
s(g26
g157
tp1987
I0
s(g99
g11
tp1988
I0
s(g93
g83
tp1989
I0
s(g130
g6
tp1990
I0
s(g49
g130
tp1991
I0
s(g152
g48
tp1992
I0
s(g68
g326
tp1993
I0
s(g53
g88
tp1994
I0
s(g176
g73
tp1995
I0
s(g130
g49
tp1996
I0
s(g6
g64
tp1997
I0
s(g93
g75
tp1998
I0
s(g140
g17
tp1999
I0
s(g75
g198
tp2000
I0
s(g3
g56
tp2001
I0
s(g26
g8
tp2002
I0
s(g69
g64
tp2003
I0
s(g36
g62
tp2004
I0
s(g326
g21
tp2005
I0
s(g95
g8
tp2006
I0
s(g176
g54
tp2007
I0
s(g53
g24
tp2008
I0
s(g193
g58
tp2009
I0
s(g75
g140
tp2010
I0
s(g24
g176
tp2011
I0
s(g45
g27
tp2012
I0
s(g95
g11
tp2013
I0
s(g223
g54
tp2014
I0
s(g14
g6
tp2015
I0
s(g8
g140
tp2016
I0
s(g14
g152
tp2017
I0
s(g152
g104
tp2018
I0
s(g18
g26
tp2019
I0
s(g20
g34
tp2020
I0
s(g36
g77
tp2021
I0
s(g43
g88
tp2022
I0
s(g198
g24
tp2023
I0
s(g107
g99
tp2024
F0.017064846416382253
s(g193
g75
tp2025
I0
s(g38
g122
tp2026
I0
s(g27
g81
tp2027
I0
s(g41
g223
tp2028
I0
s(g152
g198
tp2029
I0
s(g160
g75
tp2030
I0
s(g38
g43
tp2031
F0.13147386100320221
s(g107
g2
tp2032
I0
s(g109
g5
tp2033
I0
s(g20
g14
tp2034
I0
s(g72
g160
tp2035
I0
s(g53
g104
tp2036
I0
s(g99
g238
tp2037
I0
s(g41
g238
tp2038
I0
s(g97
g68
tp2039
I0
s(g91
g69
tp2040
I0
s(g33
g139
tp2041
I0
s(g81
g95
tp2042
I0
s(g107
g119
tp2043
I0
s(g75
g157
tp2044
I0
s(g20
g119
tp2045
I0
s(g152
g24
tp2046
I0
s(g107
g81
tp2047
I0
s(g119
g48
tp2048
I0
s(g91
g176
tp2049
I0
s(g75
g115
tp2050
I0
s(g73
g157
tp2051
I0
s(g33
g38
tp2052
I0
s(g81
g238
tp2053
I0
s(g238
g62
tp2054
I0
s(g54
g48
tp2055
I0
s(g69
g49
tp2056
I0
s(g99
g46
tp2057
I0
s(g21
g130
tp2058
I0
s(g64
g11
tp2059
I0
s(g176
g113
tp2060
I0
s(g81
g72
tp2061
I0
s(g72
g77
tp2062
I0
s(g27
g21
tp2063
I0
s(g83
g21
tp2064
I0
s(g46
g5
tp2065
I0
s(g48
g12
tp2066
I0
s(g88
g104
tp2067
I0
s(g72
g79
tp2068
I0
s(g124
g56
tp2069
I0
s(g48
g91
tp2070
I0
s(g36
g115
tp2071
I0
s(g8
g81
tp2072
I0
s(g122
g6
tp2073
I0
s(g20
g5
tp2074
I0
s(g91
g160
tp2075
I0
s(g41
g88
tp2076
I0
s(g107
g33
tp2077
I0
s(g72
g326
tp2078
I0
s(g93
g8
tp2079
I0
s(g15
g130
tp2080
F0.64299727790405181
s(g24
g31
tp2081
I0
s(g43
g223
tp2082
I0
s(g48
g75
tp2083
I0
s(g139
g198
tp2084
I0
s(g64
g97
tp2085
I0
s(g53
g43
tp2086
I0
s(g143
g20
tp2087
I0
s(g27
g99
tp2088
I0
s(g2
g223
tp2089
I0
s(g3
g109
tp2090
I0
s(g30
g143
tp2091
I0
s(g43
g238
tp2092
I0
s(g6
g130
tp2093
I0
s(g5
g38
tp2094
I0
s(g30
g198
tp2095
I0
s(g139
g3
tp2096
I0
s(g140
g8
tp2097
I0
s(g34
g26
tp2098
I0
s(g5
g56
tp2099
I0
s(g160
g107
tp2100
I0
s(g9
g36
tp2101
I0
s(g104
g124
tp2102
I0
s(g36
g20
tp2103
I0
s(g140
g34
tp2104
I0
s(g14
g20
tp2105
I0
s(g152
g36
tp2106
I0
s(g9
g109
tp2107
I0
s(g104
g238
tp2108
I0
s(g18
g143
tp2109
I0
s(g130
g45
tp2110
I0
s(g115
g109
tp2111
I0
s(g38
g124
tp2112
I0
s(g88
g152
tp2113
I0
s(g198
g8
tp2114
I0
s(g91
g36
tp2115
I0
s(g30
g53
tp2116
I0
s(g113
g69
tp2117
I0
s(g77
g64
tp2118
I0
s(g107
g115
tp2119
I0
s(g66
g45
tp2120
I0
s(g73
g21
tp2121
I0
s(g93
g43
tp2122
I0
s(g119
g73
tp2123
I0
s(g75
g18
tp2124
I0
s(g31
g95
tp2125
I0
s(g91
g107
tp2126
I0
s(g81
g107
tp2127
I0
s(g193
g26
tp2128
I0
s(g79
g34
tp2129
I0
s(g62
g223
tp2130
I0
s(g64
g31
tp2131
I0
s(g41
g5
tp2132
I0
s(g58
g66
tp2133
I0
s(g115
g143
tp2134
I0
s(g2
g124
tp2135
I0
s(g17
g83
tp2136
I0
s(g79
g326
tp2137
I0
s(g38
g73
tp2138
I0
s(g46
g41
tp2139
I0
s(g23
g56
tp2140
I0
s(g72
g56
tp2141
I0
s(g160
g83
tp2142
I0
s(g36
g30
tp2143
I0
s(g18
g193
tp2144
I0
s(g88
g46
tp2145
I0
s(g21
g107
tp2146
I0
s(g27
g68
tp2147
I0
s(g97
g6
tp2148
I0
s(g91
g58
tp2149
I0
s(g119
g12
tp2150
I0
s(g119
g56
tp2151
I0
s(g198
g46
tp2152
I0
s(g43
g124
tp2153
I0
s(g14
g45
tp2154
I0
s(g143
g66
tp2155
I0
s(g122
g68
tp2156
I0
s(g5
g30
tp2157
I0
s(g3
g198
tp2158
I0
s(g20
g11
tp2159
I0
s(g95
g69
tp2160
I0
s(g157
g43
tp2161
I0
s(g46
g223
tp2162
I0
s(g6
g176
tp2163
I0
s(g8
g41
tp2164
I0
s(g130
g15
tp2165
I0
s(g160
g2
tp2166
I0
s(g8
g6
tp2167
I0
s(g157
g72
tp2168
I0
s(g43
g77
tp2169
I0
s(g143
g48
tp2170
I0
s(g104
g107
tp2171
I0
s(g143
g198
tp2172
I0
s(g99
g139
tp2173
I0
s(g11
g143
tp2174
I0
s(g81
g326
tp2175
I0
s(g34
g119
tp2176
I0
s(g152
g83
tp2177
I0
s(g68
g88
tp2178
I0
s(g46
g20
tp2179
I0
s(g64
g130
tp2180
I0
s(g53
g157
tp2181
I0
s(g109
g24
tp2182
I0
s(g140
g157
tp2183
I0
s(g124
g160
tp2184
I0
s(g238
g152
tp2185
I0
s(g160
g56
tp2186
I0
s(g160
g12
tp2187
I0
s(g119
g53
tp2188
I0
s(g99
g326
tp2189
I0
s(g99
g33
tp2190
I0
s(g66
g198
tp2191
I0
s(g93
g11
tp2192
I0
s(g326
g193
tp2193
I0
s(g48
g77
tp2194
I0
s(g75
g34
tp2195
I0
s(g107
g326
tp2196
I0
s(g46
g6
tp2197
I0
s(g43
g5
tp2198
I0
s(g77
g140
tp2199
I0
s(g31
g43
tp2200
I0
s(g3
g79
tp2201
I0
s(g45
g34
tp2202
I0
s(g160
g24
tp2203
I0
s(g95
g157
tp2204
I0
s(g38
g38
tp2205
F0.73531587004007504
s(g14
g58
tp2206
I0
s(g49
g46
tp2207
I0
s(g45
g140
tp2208
I0
s(g21
g20
tp2209
I0
s(g193
g66
tp2210
I0
s(g326
g130
tp2211
I0
s(g79
g119
tp2212
I0
s(g45
g54
tp2213
I0
s(g104
g11
tp2214
I0
s(g38
g176
tp2215
I0
s(g62
g46
tp2216
I0
s(g18
g27
tp2217
I0
s(g45
g20
tp2218
I0
s(g113
g139
tp2219
I0
s(g48
g139
tp2220
I0
s(g41
g34
tp2221
I0
s(g26
g56
tp2222
I0
s(g12
g72
tp2223
I0
s(g14
g46
tp2224
I0
s(g49
g62
tp2225
I0
s(g326
g93
tp2226
I0
s(g109
g198
tp2227
I0
s(g326
g18
tp2228
I0
s(g238
g73
tp2229
I0
s(g23
g17
tp2230
I0
s(g238
g122
tp2231
I0
s(g12
g38
tp2232
F0.087804878048780483
s(g160
g104
tp2233
I0
s(g68
g238
tp2234
I0
s(g326
g140
tp2235
I0
s(g36
g69
tp2236
I0
s(g9
g53
tp2237
I0
s(g113
g34
tp2238
I0
s(g130
g2
tp2239
I0
s(g198
g31
tp2240
I0
s(g30
g54
tp2241
I0
s(g176
g124
tp2242
F0.42490396295863159
s(g88
g18
tp2243
I0
s(g97
g26
tp2244
I0
s(g18
g9
tp2245
I0
s(g68
g95
tp2246
I0
s(g11
g36
tp2247
I0
s(g20
g143
tp2248
I0
s(g34
g115
tp2249
I0
s(g88
g93
tp2250
I0
s(g73
g83
tp2251
I0
s(g83
g41
tp2252
I0
s(g18
g68
tp2253
I0
s(g2
g26
tp2254
I0
s(g31
g68
tp2255
I0
s(g18
g54
tp2256
I0
s(g26
g23
tp2257
I0
s(g326
g11
tp2258
I0
s(g48
g81
tp2259
I0
s(g45
g49
tp2260
F0.99426730889268722
s(g152
g46
tp2261
I0
s(g69
g43
tp2262
I0
s(g43
g34
tp2263
I0
s(g17
g238
tp2264
I0
s(g23
g30
tp2265
I0
s(g64
g238
tp2266
I0
s(g72
g69
tp2267
F0.45454545454545453
s(g8
g113
tp2268
I0
s(g15
g77
tp2269
I0
s(g198
g68
tp2270
I0
s(g68
g18
tp2271
I0
s(g130
g119
tp2272
I0
s(g68
g21
tp2273
I0
s(g91
g73
tp2274
I0
s(g43
g14
tp2275
I0
s(g45
g73
tp2276
I0
s(g73
g27
tp2277
I0
s(g21
g73
tp2278
I0
s(g97
g62
tp2279
I0
s(g53
g5
tp2280
I0
s(g193
g18
tp2281
I0
s(g64
g49
tp2282
I0
s(g6
g104
tp2283
I0
s(g130
g20
tp2284
I0
s(g15
g46
tp2285
I0
s(g97
g33
tp2286
I0
s(g104
g64
tp2287
I0
s(g8
g20
tp2288
I0
s(g79
g30
tp2289
I0
s(g119
g15
tp2290
F0.47398843930635837
s(g12
g140
tp2291
I0
s(g115
g18
tp2292
I0
s(g64
g68
tp2293
I0
s(g38
g104
tp2294
I0
s(g124
g81
tp2295
I0
s(g8
g5
tp2296
I0
s(g68
g107
tp2297
I0
s(g6
g46
tp2298
I0
s(g69
g72
tp2299
F0.87584738984138066
s(g157
g73
tp2300
I0
s(g115
g17
tp2301
I0
s(g64
g83
tp2302
I0
s(g122
g124
tp2303
I0
s(g17
g53
tp2304
I0
s(g79
g3
tp2305
I0
s(g21
g62
tp2306
I0
s(g54
g20
tp2307
I0
s(g122
g23
tp2308
I0
s(g130
g12
tp2309
I0
s(g17
g143
tp2310
I0
s(g56
g152
tp2311
I0
s(g223
g83
tp2312
I0
s(g23
g12
tp2313
I0
s(g73
g99
tp2314
I0
s(g6
g107
tp2315
I0
s(g54
g160
tp2316
I0
s(g64
g122
tp2317
I0
s(g64
g77
tp2318
I0
s(g48
g97
tp2319
I0
s(g99
g12
tp2320
F1
s(g193
g81
tp2321
I0
s(g6
g99
tp2322
I0
s(g34
g33
tp2323
I0
s(g326
g152
tp2324
I0
s(g119
g77
tp2325
I0
s(g17
g43
tp2326
I0
s(g68
g104
tp2327
I0
s(g223
g49
tp2328
I0
s(g66
g73
tp2329
I0
s(g5
g49
tp2330
I0
s(g130
g41
tp2331
I0
s(g49
g12
tp2332
I0
s(g24
g30
tp2333
I0
s(g9
g77
tp2334
I0
s(g99
g81
tp2335
I0
s(g99
g38
tp2336
I0
s(g15
g99
tp2337
I0
s(g115
g238
tp2338
I0
s(g12
g11
tp2339
I0
s(g6
g18
tp2340
I0
s(g223
g223
tp2341
I0
s(g18
g31
tp2342
I0
s(g15
g68
tp2343
I0
s(g73
g30
tp2344
I0
s(g119
g30
tp2345
I0
s(g24
g6
tp2346
I0
s(g124
g143
tp2347
I0
s(g46
g62
tp2348
I0
s(g48
g238
tp2349
I0
s(g66
g223
tp2350
I0
s(g139
g99
tp2351
I0
s(g18
g72
tp2352
I0
s(g69
g12
tp2353
I0
s(g15
g93
tp2354
I0
s(g81
g160
tp2355
I0
s(g56
g193
tp2356
I0
s(g30
g2
tp2357
I0
s(g104
g97
tp2358
I0
s(g3
g9
tp2359
F0.98534310459693542
s(g15
g43
tp2360
I0
s(g53
g26
tp2361
I0
s(g14
g124
tp2362
I0
s(g124
g15
tp2363
I0
s(g3
g2
tp2364
I0
s(g124
g79
tp2365
I0
s(g119
g49
tp2366
I0
s(g69
g139
tp2367
I0
s(g107
g95
tp2368
I0
s(g14
g88
tp2369
I0
s(g43
g104
tp2370
I0
s(g45
g14
tp2371
I0
s(g130
g11
tp2372
I0
s(g193
g11
tp2373
I0
s(g9
g119
tp2374
I0
s(g109
g17
tp2375
I0
s(g8
g122
tp2376
I0
s(g5
g14
tp2377
F0.99432459240937066
s(g8
g26
tp2378
I0
s(g238
g68
tp2379
I0
s(g97
g75
tp2380
I0
s(g104
g3
tp2381
I0
s(g176
g6
tp2382
I0
s(g9
g14
tp2383
I0
s(g33
g64
tp2384
I0
s(g23
g41
tp2385
I0
s(g6
g238
tp2386
I0
s(g99
g56
tp2387
I0
s(g73
g69
tp2388
I0
s(g54
g27
tp2389
I0
s(g64
g46
tp2390
I0
s(g66
g14
tp2391
I0
s(g43
g24
tp2392
I0
s(g113
g53
tp2393
I0
s(g9
g34
tp2394
I0
s(g130
g115
tp2395
I0
s(g107
g15
tp2396
I0
s(g152
g95
tp2397
I0
s(g27
g115
tp2398
I0
s(g9
g8
tp2399
I0
s(g157
g109
tp2400
I0
s(g12
g20
tp2401
I0
s(g113
g43
tp2402
I0
s(g97
g9
tp2403
I0
s(g49
g113
tp2404
I0
s(g83
g58
tp2405
I0
s(g143
g58
tp2406
I0
s(g20
g66
tp2407
I0
s(g160
g160
tp2408
F0.20270270270270271
s(g122
g88
tp2409
I0
s(g326
g46
tp2410
I0
s(g88
g122
tp2411
I0
s(g152
g5
tp2412
I0
s(g6
g20
tp2413
I0
s(g33
g17
tp2414
I0
s(g69
g9
tp2415
I0
s(g109
g9
tp2416
I0
s(g326
g12
tp2417
I0
s(g6
g34
tp2418
I0
s(g56
g38
tp2419
I0
s(g95
g15
tp2420
I0
s(g11
g95
tp2421
I0
s(g20
g83
tp2422
I0
s(g95
g48
tp2423
I0
s(g12
g91
tp2424
I0
s(g73
g143
tp2425
I0
s(g68
g160
tp2426
I0
s(g140
g93
tp2427
I0
s(g198
g36
tp2428
I0
s(g18
g83
tp2429
I0
s(g152
g68
tp2430
I0
s(g157
g34
tp2431
I0
s(g73
g115
tp2432
I0
s(g30
g20
tp2433
I0
s(g6
g223
tp2434
I0
s(g11
g223
tp2435
I0
s(g157
g8
tp2436
I0
s(g160
g11
tp2437
I0
s(g36
g36
tp2438
F0.71588818327497183
s(g46
g69
tp2439
I0
s(g143
g193
tp2440
I0
s(g143
g77
tp2441
I0
s(g48
g122
tp2442
I0
s(g34
g77
tp2443
I0
s(g198
g83
tp2444
I0
s(g79
g23
tp2445
I0
s(g53
g2
tp2446
I0
s(g79
g122
tp2447
I0
s(g81
g21
tp2448
I0
s(g77
g107
tp2449
I0
s(g83
g122
tp2450
I0
s(g56
g3
tp2451
I0
s(g139
g6
tp2452
I0
s(g83
g152
tp2453
I0
s(g24
g12
tp2454
I0
s(g27
g5
tp2455
I0
s(g95
g2
tp2456
I0
s(g33
g140
tp2457
I0
s(g54
g64
tp2458
I0
s(g73
g97
tp2459
I0
s(g15
g58
tp2460
I0
s(g73
g109
tp2461
I0
s(g223
g122
tp2462
I0
s(g26
g140
tp2463
I0
s(g176
g119
tp2464
I0
s(g113
g326
tp2465
F0.99148915453111419
s(g73
g104
tp2466
I0
s(g43
g8
tp2467
I0
s(g113
g62
tp2468
I0
s(g107
g54
tp2469
I0
s(g5
g5
tp2470
F0.10227272727272728
s(g326
g69
tp2471
I0
s(g160
g53
tp2472
I0
s(g139
g58
tp2473
I0
s(g11
g88
tp2474
I0
s(g56
g326
tp2475
I0
s(g97
g11
tp2476
I0
s(g46
g152
tp2477
I0
s(g326
g77
tp2478
I0
s(g17
g79
tp2479
I0
s(g15
g6
tp2480
I0
s(g43
g143
tp2481
I0
s(g93
g21
tp2482
I0
s(g5
g27
tp2483
I0
s(g198
g41
tp2484
I0
s(g119
g152
tp2485
I0
s(g77
g99
tp2486
I0
s(g198
g62
tp2487
I0
s(g12
g109
tp2488
I0
s(g64
g9
tp2489
I0
s(g62
g36
tp2490
I0
s(g223
g56
tp2491
I0
s(g113
g45
tp2492
I0
s(g26
g5
tp2493
I0
s(g11
g107
tp2494
I0
s(g26
g38
tp2495
I0
s(g26
g64
tp2496
I0
s(g95
g54
tp2497
I0
s(g124
g58
tp2498
I0
s(g31
g38
tp2499
I0
s(g176
g43
tp2500
I0
s(g193
g56
tp2501
I0
s(g73
g66
tp2502
I0
s(g75
g9
tp2503
I0
s(g12
g43
tp2504
I0
s(g81
g31
tp2505
I0
s(g31
g62
tp2506
I0
s(g75
g64
tp2507
I0
s(g223
g24
tp2508
I0
s(g48
g24
tp2509
I0
s(g9
g326
tp2510
I0
s(g64
g23
tp2511
I0
s(g34
g11
tp2512
I0
s(g30
g91
tp2513
I0
s(g124
g83
tp2514
I0
s(g124
g6
tp2515
I0
s(g75
g152
tp2516
I0
s(g41
g140
tp2517
I0
s(g77
g53
tp2518
I0
s(g31
g79
tp2519
I0
s(g33
g119
tp2520
I0
s(g8
g75
tp2521
I0
s(g43
g72
tp2522
I0
s(g79
g24
tp2523
I0
s(g88
g43
tp2524
I0
s(g99
g58
tp2525
I0
s(g99
g91
tp2526
I0
s(g21
g5
tp2527
I0
s(g62
g53
tp2528
I0
s(g36
g91
tp2529
I0
s(g107
g97
tp2530
I0
s(g46
g24
tp2531
I0
s(g31
g14
tp2532
I0
s(g45
g31
tp2533
I0
s(g115
g157
tp2534
I0
s(g54
g9
tp2535
I0
s(g56
g198
tp2536
I0
s(g193
g198
tp2537
I0
s(g48
g193
tp2538
I0
s(g122
g238
tp2539
I0
s(g152
g54
tp2540
I0
s(g49
g140
tp2541
I0
s(g104
g81
tp2542
I0
s(g75
g73
tp2543
I0
s(g56
g69
tp2544
I0
s(g18
g91
tp2545
I0
s(g8
g326
tp2546
I0
s(g43
g36
tp2547
I0
s(g124
g113
tp2548
I0
s(g115
g75
tp2549
I0
s(g139
g193
tp2550
I0
s(g97
g5
tp2551
I0
s(g26
g326
tp2552
I0
s(g113
g23
tp2553
I0
s(g31
g115
tp2554
I0
s(g38
g64
tp2555
I0
s(g45
g130
tp2556
I0
s(g81
g26
tp2557
I0
s(g12
g152
tp2558
I0
s(g45
g115
tp2559
I0
s(g160
g238
tp2560
I0
s(g9
g12
tp2561
I0
s(g3
g6
tp2562
I0
s(g223
g72
tp2563
I0
s(g130
g91
tp2564
I0
s(g9
g223
tp2565
I0
s(g14
g115
tp2566
I0
s(g113
g140
tp2567
I0
s(g143
g79
tp2568
I0
s(g49
g68
tp2569
I0
s(g58
g31
tp2570
I0
s(g48
g160
tp2571
I0
s(g109
g83
tp2572
I0
s(g41
g15
tp2573
I0
s(g83
g72
tp2574
I0
s(g6
g157
tp2575
I0
s(g326
g64
tp2576
I0
s(g49
g104
tp2577
I0
s(g43
g97
tp2578
I0
s(g160
g18
tp2579
F0.98557524261972762
s(g34
g109
tp2580
I0
s(g49
g8
tp2581
I0
s(g20
g75
tp2582
I0
s(g38
g23
tp2583
I0
s(g93
g99
tp2584
I0
s(g83
g38
tp2585
I0
s(g75
g43
tp2586
I0
s(g33
g157
tp2587
I0
s(g143
g109
tp2588
I0
s(g223
g124
tp2589
I0
s(g68
g43
tp2590
I0
s(g38
g139
tp2591
I0
s(g20
g53
tp2592
I0
s(g34
g20
tp2593
I0
s(g93
g124
tp2594
F0.92369225943063282
s(g20
g104
tp2595
I0
s(g49
g73
tp2596
I0
s(g34
g54
tp2597
I0
s(g26
g124
tp2598
I0
s(g62
g157
tp2599
I0
s(g54
g46
tp2600
I0
s(g27
g23
tp2601
I0
s(g14
g48
tp2602
I0
s(g36
g5
tp2603
F0.36809815950920244
s(g113
g17
tp2604
I0
s(g27
g17
tp2605
I0
s(g24
g43
tp2606
I0
s(g33
g2
tp2607
I0
s(g15
g23
tp2608
I0
s(g31
g88
tp2609
I0
s(g152
g14
tp2610
I0
s(g160
g58
tp2611
I0
s(g68
g124
tp2612
I0
s(g326
g3
tp2613
I0
s(g46
g3
tp2614
I0
s(g88
g5
tp2615
I0
s(g97
g56
tp2616
I0
s(g66
g2
tp2617
I0
s(g109
g54
tp2618
I0
s(g20
g24
tp2619
I0
s(g99
g53
tp2620
I0
s(g49
g56
tp2621
I0
s(g72
g27
tp2622
I0
s(g95
g91
tp2623
I0
s(g124
g99
tp2624
I0
s(g33
g143
tp2625
I0
s(g38
g9
tp2626
F0.98150113876982248
s(g157
g38
tp2627
I0
s(g160
g157
tp2628
I0
s(g43
g49
tp2629
I0
s(g24
g122
tp2630
I0
s(g69
g326
tp2631
I0
s(g30
g38
tp2632
I0
s(g72
g5
tp2633
I0
s(g69
g152
tp2634
I0
s(g143
g8
tp2635
I0
s(g21
g58
tp2636
I0
s(g49
g2
tp2637
I0
s(g5
g36
tp2638
I0
s(g122
g14
tp2639
I0
s(g14
g91
tp2640
I0
s(g97
g73
tp2641
I0
s(g43
g17
tp2642
I0
s(g104
g62
tp2643
I0
s(g140
g193
tp2644
I0
s(g69
g41
tp2645
I0
s(g9
g30
tp2646
I0
s(g30
g69
tp2647
I0
s(g14
g77
tp2648
I0
s(g54
g8
tp2649
I0
s(g62
g75
tp2650
I0
s(g79
g41
tp2651
I0
s(g62
g62
tp2652
F0.88668408037524526
s(g88
g115
tp2653
I0
s(g66
g12
tp2654
I0
s(g223
g140
tp2655
I0
s(g99
g99
tp2656
I0
s(g33
g49
tp2657
I0
s(g21
g6
tp2658
I0
s(g83
g77
tp2659
I0
s(g107
g68
tp2660
I0
s(g48
g21
tp2661
I0
s(g95
g88
tp2662
I0
s(g49
g45
tp2663
I0
s(g62
g33
tp2664
I0
s(g2
g41
tp2665
I0
s(g160
g21
tp2666
I0
s(g79
g9
tp2667
I0
s(g193
g176
tp2668
I0
s(g6
g113
tp2669
I0
s(g99
g83
tp2670
I0
s(g99
g8
tp2671
I0
s(g79
g79
tp2672
F0.67293233082706772
s(g113
g36
tp2673
I0
s(g77
g17
tp2674
I0
s(g27
g49
tp2675
I0
s(g17
g81
tp2676
I0
s(g104
g66
tp2677
I0
s(g53
g38
tp2678
I0
s(g34
g23
tp2679
I0
s(g49
g41
tp2680
I0
s(g49
g66
tp2681
I0
s(g77
g21
tp2682
I0
s(g93
g64
tp2683
I0
s(g95
g326
tp2684
I0
s(g9
g62
tp2685
I0
s(g15
g124
tp2686
I0
s(g3
g12
tp2687
I0
s(g36
g34
tp2688
I0
s(g58
g68
tp2689
I0
s(g66
g193
tp2690
I0
s(g97
g41
tp2691
I0
s(g3
g43
tp2692
I0
s(g18
g160
tp2693
I0
s(g24
g83
tp2694
I0
s(g75
g99
tp2695
I0
s(g38
g95
tp2696
I0
s(g69
g23
tp2697
I0
s(g176
g62
tp2698
I0
s(g238
g97
tp2699
I0
s(g130
g48
tp2700
I0
s(g122
g77
tp2701
I0
s(g20
g23
tp2702
I0
s(g31
g12
tp2703
I0
s(g104
g140
tp2704
I0
s(g26
g73
tp2705
I0
s(g15
g64
tp2706
I0
s(g9
g15
tp2707
I0
s(g3
g11
tp2708
I0
s(g23
g6
tp2709
I0
s(g193
g88
tp2710
I0
s(g24
g77
tp2711
I0
s(g81
g15
tp2712
I0
s(g41
g33
tp2713
I0
s(g18
g2
tp2714
I0
s(g130
g95
tp2715
I0
s(g81
g152
tp2716
I0
s(g23
g5
tp2717
I0
s(g38
g198
tp2718
I0
s(g79
g97
tp2719
I0
s(g107
g88
tp2720
I0
s(g157
g115
tp2721
I0
s(g130
g104
tp2722
I0
s(g119
g113
tp2723
I0
s(g64
g157
tp2724
I0
s(g43
g11
tp2725
I0
s(g104
g18
tp2726
I0
s(g34
g41
tp2727
I0
s(g130
g109
tp2728
I0
s(g18
g41
tp2729
I0
s(g30
g81
tp2730
I0
s(g104
g43
tp2731
I0
s(g326
g34
tp2732
I0
s(g26
g83
tp2733
I0
s(g53
g77
tp2734
I0
s(g104
g93
tp2735
I0
s(g66
g6
tp2736
I0
s(g56
g26
tp2737
I0
s(g64
g326
tp2738
I0
s(g198
g21
tp2739
I0
s(g91
g93
tp2740
I0
s(g83
g115
tp2741
I0
s(g46
g2
tp2742
I0
s(g24
g139
tp2743
I0
s(g45
g2
tp2744
I0
s(g30
g104
tp2745
I0
s(g41
g160
tp2746
I0
s(g157
g23
tp2747
I0
s(g88
g34
tp2748
I0
s(g6
g17
tp2749
I0
s(g109
g143
tp2750
I0
s(g8
g31
tp2751
I0
s(g68
g34
tp2752
I0
s(g15
g49
tp2753
I0
s(g14
g93
tp2754
I0
s(g18
g15
tp2755
I0
s(g223
g75
tp2756
I0
s(g68
g20
tp2757
I0
s(g9
g21
tp2758
I0
s(g9
g46
tp2759
I0
s(g26
g36
tp2760
I0
s(g122
g12
tp2761
I0
s(g3
g122
tp2762
I0
s(g2
g17
tp2763
I0
s(g53
g41
tp2764
I0
s(g23
g66
tp2765
F0.96300155848597124
s(g122
g46
tp2766
I0
s(g223
g91
tp2767
I0
s(g30
g122
tp2768
F0.99208003334722805
s(g11
g23
tp2769
I0
s(g68
g119
tp2770
F0.16666666666666666
s(g21
g157
tp2771
I0
s(g49
g77
tp2772
I0
s(g12
g8
tp2773
I0
s(g69
g24
tp2774
I0
s(g115
g6
tp2775
I0
s(g23
g69
tp2776
I0
s(g33
g122
tp2777
I0
s(g104
g34
tp2778
I0
s(g140
g64
tp2779
I0
s(g77
g49
tp2780
I0
s(g9
g54
tp2781
I0
s(g34
g27
tp2782
I0
s(g152
g115
tp2783
I0
s(g53
g12
tp2784
I0
s(g115
g30
tp2785
I0
s(g198
g18
tp2786
I0
s(g38
g45
tp2787
I0
s(g45
g11
tp2788
I0
s(g198
g122
tp2789
I0
s(g160
g3
tp2790
I0
s(g27
g104
tp2791
I0
s(g143
g26
tp2792
I0
s(g97
g91
tp2793
I0
s(g64
g139
tp2794
I0
s(g326
g38
tp2795
I0
s(g107
g58
tp2796
I0
s(g20
g36
tp2797
I0
s(g73
g2
tp2798
I0
s(g17
g11
tp2799
I0
s(g107
g122
tp2800
I0
s(g95
g56
tp2801
I0
s(g9
g113
tp2802
I0
s(g152
g223
tp2803
I0
s(g223
g139
tp2804
I0
s(g88
g38
tp2805
I0
s(g113
g157
tp2806
I0
s(g53
g20
tp2807
I0
s(g160
g115
tp2808
I0
s(g46
g157
tp2809
I0
s(g95
g95
tp2810
F0.82996574131626955
s(g27
g91
tp2811
I0
s(g58
g58
tp2812
I0
s(g88
g72
tp2813
I0
s(g176
g20
tp2814
F0.96317381664948365
s(g20
g97
tp2815
I0
s(g104
g58
tp2816
I0
s(g5
g11
tp2817
I0
s(g72
g198
tp2818
I0
s(g58
g3
tp2819
I0
s(g46
g45
tp2820
I0
s(g95
g99
tp2821
I0
s(g198
g15
tp2822
I0
s(g48
g11
tp2823
I0
s(g45
g93
tp2824
I0
s(g49
g223
tp2825
I0
s(g20
g3
tp2826
I0
s(g54
g97
tp2827
I0
s(g5
g26
tp2828
I0
s(g95
g72
tp2829
I0
s(g6
g119
tp2830
I0
s(g62
g152
tp2831
I0
s(g62
g176
tp2832
I0
s(g113
g2
tp2833
I0
s(g143
g2
tp2834
I0
s(g49
g49
tp2835
F0.99556344276841169
s(g238
g33
tp2836
I0
s(g14
g31
tp2837
I0
s(g83
g34
tp2838
I0
s(g160
g95
tp2839
I0
s(g88
g56
tp2840
I0
s(g49
g24
tp2841
I0
s(g31
g73
tp2842
I0
s(g18
g88
tp2843
I0
s(g3
g24
tp2844
I0
s(g49
g88
tp2845
I0
s(g14
g17
tp2846
I0
s(g12
g79
tp2847
I0
s(g176
g56
tp2848
I0
s(g30
g160
tp2849
I0
s(g53
g56
tp2850
I0
s(g46
g53
tp2851
I0
s(g77
g157
tp2852
I0
s(g88
g193
tp2853
I0
s(g9
g58
tp2854
F0.27893675870798368
s(g104
g99
tp2855
I0
s(g68
g75
tp2856
I0
s(g124
g88
tp2857
I0
s(g62
g18
tp2858
I0
s(g48
g99
tp2859
I0
s(g69
g83
tp2860
I0
s(g49
g75
tp2861
I0
s(g41
g119
tp2862
I0
s(g23
g95
tp2863
I0
s(g34
g45
tp2864
I0
s(g104
g157
tp2865
I0
s(g157
g122
tp2866
I0
s(g2
g72
tp2867
I0
s(g26
g69
tp2868
I0
s(g115
g99
tp2869
I0
s(g113
g104
tp2870
I0
s(g119
g54
tp2871
I0
s(g56
g88
tp2872
I0
s(g107
g62
tp2873
F0.95080148135588582
s(g66
g5
tp2874
I0
s(g24
g143
tp2875
I0
s(g53
g8
tp2876
I0
s(g113
g107
tp2877
I0
s(g75
g12
tp2878
I0
s(g49
g109
tp2879
I0
s(g139
g43
tp2880
I0
s(g36
g56
tp2881
I0
s(g326
g124
tp2882
I0
s(g5
g31
tp2883
I0
s(g2
g11
tp2884
I0
s(g79
g6
tp2885
I0
s(g38
g68
tp2886
I0
s(g66
g27
tp2887
I0
s(g124
g238
tp2888
I0
s(g91
g38
tp2889
I0
s(g113
g48
tp2890
I0
s(g9
g17
tp2891
I0
s(g18
g326
tp2892
I0
s(g198
g33
tp2893
I0
s(g193
g17
tp2894
I0
s(g58
g91
tp2895
I0
s(g88
g113
tp2896
I0
s(g64
g34
tp2897
I0
s(g8
g109
tp2898
I0
s(g30
g223
tp2899
I0
s(g130
g21
tp2900
I0
s(g20
g33
tp2901
I0
s(g48
g2
tp2902
I0
s(g73
g68
tp2903
I0
s(g130
g81
tp2904
I0
s(g122
g91
tp2905
I0
s(g143
g21
tp2906
I0
s(g24
g157
tp2907
I0
s(g11
g130
tp2908
I0
s(g3
g68
tp2909
I0
s(g58
g93
tp2910
I0
s(g326
g115
tp2911
I0
s(g24
g69
tp2912
I0
s(g56
g157
tp2913
I0
s(g56
g5
tp2914
I0
s(g20
g139
tp2915
I0
s(g77
g15
tp2916
I0
s(g41
g31
tp2917
I0
s(g14
g54
tp2918
I0
s(g56
g176
tp2919
I0
s(g81
g69
tp2920
I0
s(g326
g139
tp2921
I0
s(g99
g160
tp2922
I0
s(g15
g34
tp2923
I0
s(g176
g75
tp2924
I0
s(g30
g77
tp2925
I0
s(g72
g75
tp2926
I0
s(g109
g33
tp2927
I0
s(g73
g107
tp2928
I0
s(g130
g160
tp2929
I0
s(g176
g3
tp2930
I0
s(g223
g2
tp2931
I0
s(g34
g69
tp2932
I0
s(g24
g326
tp2933
I0
s(g223
g88
tp2934
I0
s(g77
g66
tp2935
I0
s(g12
g62
tp2936
I0
s(g95
g12
tp2937
I0
s(g2
g193
tp2938
I0
s(g54
g23
tp2939
I0
s(g18
g38
tp2940
I0
s(g23
g88
tp2941
I0
s(g109
g238
tp2942
I0
s(g75
g83
tp2943
I0
s(g27
g83
tp2944
I0
s(g83
g88
tp2945
I0
s(g119
g193
tp2946
I0
s(g119
g6
tp2947
I0
s(g38
g109
tp2948
I0
s(g64
g113
tp2949
I0
s(g93
g198
tp2950
I0
s(g104
g48
tp2951
F0.38878610329755092
s(g160
g73
tp2952
I0
s(g46
g8
tp2953
I0
s(g99
g109
tp2954
I0
s(g122
g93
tp2955
I0
s(g104
g223
tp2956
I0
s(g69
g3
tp2957
I0
s(g75
g49
tp2958
I0
s(g18
g109
tp2959
I0
s(g91
g124
tp2960
I0
s(g23
g160
tp2961
I0
s(g91
g56
tp2962
I0
s(g119
g20
tp2963
I0
s(g3
g41
tp2964
I0
s(g43
g31
tp2965
I0
s(g62
g27
tp2966
I0
s(g95
g58
tp2967
I0
s(g122
g130
tp2968
I0
s(g69
g97
tp2969
I0
s(g122
g99
tp2970
I0
s(g122
g109
tp2971
I0
s(g9
g27
tp2972
I0
s(g17
g176
tp2973
I0
s(g238
g5
tp2974
I0
s(g27
g119
tp2975
I0
s(g23
g58
tp2976
I0
s(g238
g38
tp2977
I0
s(g77
g143
tp2978
I0
s(g21
g326
tp2979
I0
s(g45
g45
tp2980
F0.1388888888888889
s(g3
g72
tp2981
I0
s(g91
g326
tp2982
I0
s(g48
g58
tp2983
I0
s(g14
g75
tp2984
I0
s(g95
g38
tp2985
I0
s(g24
g99
tp2986
I0
s(g152
g34
tp2987
I0
s(g31
g143
tp2988
I0
s(g45
g79
tp2989
I0
s(g99
g3
tp2990
I0
s(g31
g53
tp2991
I0
s(g99
g34
tp2992
I0
s(g139
g69
tp2993
I0
s(g124
g18
tp2994
I0
s(g91
g21
tp2995
I0
s(g119
g23
tp2996
I0
s(g157
g15
tp2997
I0
s(g115
g38
tp2998
I0
s(g69
g198
tp2999
I0
s(g152
g77
tp3000
I0
s(g26
g26
tp3001
I0
s(g64
g56
tp3002
I0
s(g75
g21
tp3003
I0
s(g56
g58
tp3004
I0
s(g157
g157
tp3005
F0.1951219512195122
s(g66
g8
tp3006
I0
s(g33
g97
tp3007
I0
s(g79
g43
tp3008
I0
s(g33
g26
tp3009
I0
s(g113
g99
tp3010
I0
s(g46
g193
tp3011
I0
s(g79
g95
tp3012
I0
s(g124
g139
tp3013
F0.7142857142857143
s(g223
g15
tp3014
I0
s(g93
g157
tp3015
I0
s(g21
g113
tp3016
I0
s(g140
g72
tp3017
I0
s(g130
g54
tp3018
I0
s(g12
g53
tp3019
I0
s(g54
g24
tp3020
I0
s(g3
g140
tp3021
I0
s(g104
g152
tp3022
I0
s(g91
g54
tp3023
I0
s(g46
g79
tp3024
I0
s(g99
g198
tp3025
I0
s(g12
g238
tp3026
I0
s(g109
g26
tp3027
I0
s(g14
g122
tp3028
I0
s(g109
g46
tp3029
F0.063492063492063489
s(g109
g77
tp3030
I0
s(g72
g140
tp3031
I0
s(g66
g49
tp3032
I0
s(g21
g23
tp3033
I0
s(g5
g41
tp3034
I0
s(g26
g33
tp3035
I0
s(g11
g64
tp3036
I0
s(g140
g36
tp3037
I0
s(g122
g24
tp3038
I0
s(g15
g115
tp3039
I0
s(g95
g238
tp3040
I0
s(g41
g3
tp3041
I0
s(g66
g36
tp3042
I0
s(g41
g14
tp3043
I0
s(g23
g54
tp3044
F0.60909090909090913
s(g115
g8
tp3045
I0
s(g64
g36
tp3046
I0
s(g66
g109
tp3047
I0
s(g104
g21
tp3048
I0
s(g198
g115
tp3049
I0
s(g62
g12
tp3050
F0.29032258064516131
s(g124
g17
tp3051
I0
s(g73
g91
tp3052
I0
s(g36
g18
tp3053
I0
s(g93
g27
tp3054
I0
s(g48
g8
tp3055
I0
s(g88
g119
tp3056
I0
s(g238
g21
tp3057
I0
s(g5
g12
tp3058
I0
s(g2
g36
tp3059
I0
s(g15
g3
tp3060
I0
s(g12
g157
tp3061
I0
s(g21
g115
tp3062
I0
s(g326
g26
tp3063
I0
s(g113
g54
tp3064
I0
s(g15
g8
tp3065
I0
s(g107
g157
tp3066
I0
s(g26
g77
tp3067
I0
s(g20
g68
tp3068
I0
s(g43
g140
tp3069
I0
s(g99
g73
tp3070
I0
s(g2
g33
tp3071
I0
s(g23
g48
tp3072
I0
s(g6
g66
tp3073
I0
s(g18
g53
tp3074
I0
s(g38
g14
tp3075
I0
s(g23
g113
tp3076
I0
s(g21
g3
tp3077
I0
s(g139
g41
tp3078
I0
s(g107
g46
tp3079
I0
s(g93
g91
tp3080
I0
s(g198
g43
tp3081
I0
s(g160
g5
tp3082
I0
s(g238
g93
tp3083
I0
s(g15
g5
tp3084
I0
s(g81
g73
tp3085
I0
s(g18
g49
tp3086
I0
s(g36
g8
tp3087
I0
s(g104
g193
tp3088
I0
s(g53
g160
tp3089
I0
s(g33
g69
tp3090
I0
s(g23
g139
tp3091
I0
s(g33
g11
tp3092
I0
s(g64
g8
tp3093
I0
s(g69
g99
tp3094
I0
s(g77
g18
tp3095
I0
s(g12
g107
tp3096
I0
s(g27
g6
tp3097
I0
s(g130
g99
tp3098
I0
s(g20
g58
tp3099
I0
s(g46
g54
tp3100
I0
s(g69
g68
tp3101
I0
s(g72
g124
tp3102
I0
s(g41
g12
tp3103
I0
s(g91
g24
tp3104
I0
s(g3
g176
tp3105
I0
s(g26
g49
tp3106
I0
s(g41
g64
tp3107
I0
s(g8
g46
tp3108
I0
s(g23
g9
tp3109
I0
s(g58
g12
tp3110
I0
s(g64
g3
tp3111
I0
s(g8
g119
tp3112
I0
s(g326
g6
tp3113
I0
s(g72
g66
tp3114
I0
s(g75
g30
tp3115
I0
s(g31
g77
tp3116
I0
s(g24
g23
tp3117
I0
s(g12
g176
tp3118
I0
s(g143
g17
tp3119
I0
s(g139
g11
tp3120
I0
s(g11
g46
tp3121
I0
s(g11
g18
tp3122
I0
s(g66
g91
tp3123
I0
s(g143
g14
tp3124
I0
s(g139
g15
tp3125
I0
s(g66
g53
tp3126
I0
s(g45
g72
tp3127
I0
s(g41
g41
tp3128
F0.16190476190476191
s(g69
g38
tp3129
I0
s(g6
g48
tp3130
I0
s(g326
g27
tp3131
I0
s(g56
g49
tp3132
I0
s(g104
g15
tp3133
I0
s(g46
g36
tp3134
I0
s(g176
g34
tp3135
I0
s(g68
g9
tp3136
I0
s(g130
g73
tp3137
I0
s(g157
g49
tp3138
I0
s(g152
g27
tp3139
I0
s(g33
g68
tp3140
I0
s(g23
g130
tp3141
I0
s(g176
g8
tp3142
I0
s(g79
g115
tp3143
I0
s(g140
g5
tp3144
I0
s(g53
g17
tp3145
I0
s(g119
g45
tp3146
I0
s(g193
g79
tp3147
I0
s(g95
g62
tp3148
I0
s(g11
g326
tp3149
I0
s(g238
g157
tp3150
F0.0034602076124567475
s(g43
g12
tp3151
I0
s(g68
g41
tp3152
I0
s(g54
g83
tp3153
I0
s(g46
g64
tp3154
I0
s(g104
g49
tp3155
I0
s(g54
g21
tp3156
I0
s(g72
g21
tp3157
I0
s(g46
g72
tp3158
I0
s(g38
g20
tp3159
I0
s(g41
g54
tp3160
I0
s(g41
g176
tp3161
I0
s(g143
g81
tp3162
I0
s(g193
g122
tp3163
I0
s(g2
g79
tp3164
I0
s(g56
g77
tp3165
I0
s(g11
g109
tp3166
I0
s(g20
g54
tp3167
I0
s(g223
g43
tp3168
I0
s(g72
g97
tp3169
I0
s(g2
g23
tp3170
I0
s(g62
g41
tp3171
I0
s(g24
g62
tp3172
I0
s(g54
g33
tp3173
I0
s(g14
g69
tp3174
I0
s(g81
g176
tp3175
I0
s(g326
g62
tp3176
I0
s(g122
g21
tp3177
I0
s(g79
g64
tp3178
I0
s(g27
g14
tp3179
I0
s(g238
g104
tp3180
I0
s(g193
g5
tp3181
I0
s(g18
g122
tp3182
I0
s(g109
g139
tp3183
I0
s(g45
g107
tp3184
I0
s(g176
g33
tp3185
I0
s(g14
g198
tp3186
I0
s(g31
g2
tp3187
I0
s(g56
g107
tp3188
I0
s(g193
g107
tp3189
I0
s(g33
g15
tp3190
I0
s(g34
g24
tp3191
I0
s(g6
g33
tp3192
I0
s(g45
g64
tp3193
I0
s(g20
g46
tp3194
I0
s(g21
g64
tp3195
I0
s(g81
g48
tp3196
I0
s(g88
g75
tp3197
I0
s(g27
g24
tp3198
I0
s(g81
g11
tp3199
I0
s(g38
g8
tp3200
I0
s(g11
g20
tp3201
I0
s(g69
g27
tp3202
I0
s(g21
g176
tp3203
I0
s(g91
g139
tp3204
I0
s(g12
g115
tp3205
I0
s(g49
g122
tp3206
I0
s(g9
g93
tp3207
I0
s(g79
g73
tp3208
I0
s(g33
g9
tp3209
I0
s(g223
g109
tp3210
I0
s(g77
g68
tp3211
I0
s(g79
g81
tp3212
I0
s(g88
g48
tp3213
I0
s(g115
g69
tp3214
I0
s(g75
g72
tp3215
I0
s(g107
g17
tp3216
I0
s(g238
g140
tp3217
I0
s(g69
g75
tp3218
I0
s(g41
g38
tp3219
I0
s(g160
g97
tp3220
I0
s(g24
g58
tp3221
I0
s(g95
g14
tp3222
I0
s(g12
g3
tp3223
F0.94910040000894558
s(g24
g79
tp3224
I0
s(g73
g38
tp3225
I0
s(g99
g27
tp3226
I0
s(g12
g160
tp3227
I0
s(g130
g58
tp3228
I0
s(g107
g66
tp3229
I0
s(g62
g160
tp3230
I0
s(g17
g5
tp3231
I0
s(g72
g31
tp3232
I0
s(g18
g43
tp3233
I0
s(g97
g124
tp3234
I0
s(g36
g68
tp3235
I0
s(g12
g30
tp3236
I0
s(g62
g17
tp3237
I0
s(g143
g3
tp3238
I0
s(g54
g6
tp3239
I0
s(g122
g97
tp3240
I0
s(g31
g198
tp3241
I0
s(g23
g46
tp3242
I0
s(g326
g5
tp3243
I0
s(g157
g21
tp3244
I0
s(g107
g107
tp3245
F0.71523539797840952
s(g45
g5
tp3246
I0
s(g104
g198
tp3247
I0
s(g21
g53
tp3248
I0
s(g66
g176
tp3249
I0
s(g23
g18
tp3250
I0
s(g21
g14
tp3251
I0
s(g17
g223
tp3252
I0
s(g198
g119
tp3253
I0
s(g238
g193
tp3254
I0
s(g130
g238
tp3255
I0
s(g152
g26
tp3256
I0
s(g109
g11
tp3257
I0
s(g140
g27
tp3258
I0
s(g81
g193
tp3259
I0
s(g6
g75
tp3260
I0
s(g56
g143
tp3261
I0
s(g198
g14
tp3262
I0
s(g62
g2
tp3263
I0
s(g176
g326
tp3264
I0
s(g43
g113
tp3265
I0
s(g68
g73
tp3266
I0
s(g140
g119
tp3267
I0
s(g53
g45
tp3268
I0
s(g152
g152
tp3269
I0
s(g152
g41
tp3270
I0
s(g73
g36
tp3271
I0
s(g223
g198
tp3272
I0
s(g81
g20
tp3273
I0
s(g30
g88
tp3274
I0
s(g11
g11
tp3275
F0.75214827295703457
s(g31
g122
tp3276
I0
s(g83
g11
tp3277
I0
s(g18
g81
tp3278
I0
s(g139
g62
tp3279
I0
s(g238
g83
tp3280
I0
s(g122
g83
tp3281
I0
s(g62
g14
tp3282
I0
s(g24
g119
tp3283
I0
s(g38
g130
tp3284
I0
s(g140
g124
tp3285
I0
s(g115
g176
tp3286
I0
s(g58
g34
tp3287
I0
s(g26
g31
tp3288
I0
s(g326
g36
tp3289
I0
s(g140
g54
tp3290
F0.10857142857142857
s(g24
g5
tp3291
I0
s(g113
g176
tp3292
I0
s(g68
g99
tp3293
I0
s(g69
g21
tp3294
I0
s(g124
g8
tp3295
I0
s(g2
g77
tp3296
I0
s(g31
g93
tp3297
I0
s(g75
g6
tp3298
I0
s(g113
g24
tp3299
I0
s(g54
g12
tp3300
I0
s(g58
g113
tp3301
I0
s(g3
g130
tp3302
I0
s(g23
g157
tp3303
I0
s(g20
g30
tp3304
I0
s(g15
g326
tp3305
I0
s(g68
g2
tp3306
I0
s(g139
g104
tp3307
I0
s(g160
g130
tp3308
I0
s(g43
g20
tp3309
I0
s(g143
g72
tp3310
I0
s(g15
g2
tp3311
I0
s(g113
g73
tp3312
I0
s(g91
g140
tp3313
I0
s(g143
g95
tp3314
I0
s(g75
g58
tp3315
I0
s(g115
g27
tp3316
I0
s(g2
g68
tp3317
I0
s(g122
g69
tp3318
I0
s(g99
g62
tp3319
I0
s(g83
g6
tp3320
I0
s(g238
g139
tp3321
I0
s(g115
g2
tp3322
I0
s(g119
g34
tp3323
I0
s(g88
g198
tp3324
I0
s(g104
g326
tp3325
I0
s(g8
g54
tp3326
I0
s(g198
g26
tp3327
I0
s(g20
g88
tp3328
I0
s(g6
g81
tp3329
I0
s(g198
g73
tp3330
I0
s(g58
g238
tp3331
I0
s(g99
g69
tp3332
I0
s(g99
g18
tp3333
I0
s(g326
g56
tp3334
I0
s(g104
g2
tp3335
I0
s(g6
g21
tp3336
I0
s(g17
g113
tp3337
I0
s(g54
g14
tp3338
I0
s(g17
g104
tp3339
I0
s(g113
g56
tp3340
I0
s(g79
g93
tp3341
I0
s(g140
g26
tp3342
I0
s(g73
g31
tp3343
I0
s(g73
g5
tp3344
I0
s(g157
g77
tp3345
F0.99206648042230128
s(g91
g30
tp3346
I0
s(g43
g75
tp3347
I0
s(g12
g198
tp3348
I0
s(g36
g48
tp3349
I0
s(g223
g14
tp3350
I0
s(g193
g46
tp3351
I0
s(g31
g238
tp3352
I0
s(g38
g49
tp3353
I0
s(g9
g104
tp3354
I0
s(g43
g53
tp3355
I0
s(g139
g21
tp3356
I0
s(g34
g160
tp3357
F0.41025641025641024
s(g152
g6
tp3358
I0
s(g46
g91
tp3359
I0
s(g77
g3
tp3360
I0
s(g26
g88
tp3361
I0
s(g198
g53
tp3362
I0
s(g104
g38
tp3363
I0
s(g5
g45
tp3364
I0
s(g27
g72
tp3365
I0
s(g81
g109
tp3366
I0
s(g6
g2
tp3367
I0
s(g30
g130
tp3368
I0
s(g130
g72
tp3369
F0.16633260081431409
s(g24
g20
tp3370
I0
s(g30
g36
tp3371
I0
s(g56
g15
tp3372
I0
s(g36
g14
tp3373
F0.96396799511763587
s(g48
g73
tp3374
F1
s(g26
g122
tp3375
I0
s(g152
g91
tp3376
I0
s(g21
g139
tp3377
I0
s(g45
g30
tp3378
I0
s(g15
g143
tp3379
I0
s(g66
g46
tp3380
I0
s(g95
g122
tp3381
I0
s(g115
g139
tp3382
I0
s(g115
g15
tp3383
I0
s(g193
g160
tp3384
I0
s(g152
g157
tp3385
I0
s(g3
g18
tp3386
I0
s(g139
g73
tp3387
I0
s(g21
g12
tp3388
I0
s(g24
g18
tp3389
I0
s(g21
g109
tp3390
I0
s(g8
g58
tp3391
I0
s(g33
g198
tp3392
I0
s(g11
g54
tp3393
I0
s(g97
g54
tp3394
I0
s(g46
g119
tp3395
I0
s(g33
g41
tp3396
I0
s(g26
g58
tp3397
I0
s(g91
g198
tp3398
I0
s(g91
g81
tp3399
I0
s(g223
g176
tp3400
I0
s(g5
g20
tp3401
I0
s(g109
g31
tp3402
I0
s(g79
g113
tp3403
F0.99232451438617553
s(g3
g58
tp3404
I0
s(g176
g81
tp3405
I0
s(g238
g23
tp3406
I0
s(g41
g53
tp3407
F0.62385221994166573
s(g41
g83
tp3408
I0
s(g83
g140
tp3409
I0
s(g223
g157
tp3410
I0
s(g5
g119
tp3411
I0
s(g72
g33
tp3412
I0
s(g33
g115
tp3413
I0
s(g2
g157
tp3414
I0
s(g6
g73
tp3415
I0
s(g81
g46
tp3416
I0
s(g41
g66
tp3417
I0
s(g113
g88
tp3418
I0
s(g20
g79
tp3419
I0
s(g83
g5
tp3420
I0
s(g31
g107
tp3421
I0
s(g193
g77
tp3422
I0
s(g83
g157
tp3423
I0
s(g160
g68
tp3424
I0
s(g198
g34
tp3425
I0
s(g91
g53
tp3426
I0
s(g104
g73
tp3427
F0.98163220413550367
s(g140
g113
tp3428
I0
s(g18
g79
tp3429
I0
s(g77
g8
tp3430
I0
s(g113
g109
tp3431
I0
s(g66
g26
tp3432
I0
s(g12
g14
tp3433
I0
s(g33
g3
tp3434
I0
s(g93
g193
tp3435
I0
s(g77
g34
tp3436
I0
s(g41
g45
tp3437
I0
s(g176
g109
tp3438
I0
s(g193
g45
tp3439
I0
s(g140
g75
tp3440
I0
s(g91
g62
tp3441
I0
s(g95
g6
tp3442
I0
s(g14
g176
tp3443
I0
s(g20
g326
tp3444
I0
s(g38
g12
tp3445
I0
s(g130
g53
tp3446
I0
s(g23
g91
tp3447
I0
s(g6
g14
tp3448
I0
s(g326
g49
tp3449
I0
s(g176
g12
tp3450
I0
s(g326
g31
tp3451
F0.52409638554216864
s(g66
g77
tp3452
I0
s(g75
g139
tp3453
I0
s(g12
g41
tp3454
I0
s(g27
g139
tp3455
I0
s(g83
g24
tp3456
I0
s(g139
g88
tp3457
I0
s(g69
g122
tp3458
I0
s(g73
g93
tp3459
I0
s(g69
g73
tp3460
I0
s(g83
g139
tp3461
I0
s(g69
g30
tp3462
I0
s(g79
g69
tp3463
I0
s(g12
g45
tp3464
I0
s(g23
g143
tp3465
I0
s(g81
g99
tp3466
I0
s(g109
g68
tp3467
I0
s(g36
g41
tp3468
I0
s(g77
g109
tp3469
I0
s(g140
g46
tp3470
I0
s(g160
g38
tp3471
I0
s(g122
g43
tp3472
I0
s(g56
g140
tp3473
I0
s(g115
g24
tp3474
I0
s(g157
g36
tp3475
I0
s(g81
g93
tp3476
I0
s(g160
g26
tp3477
I0
s(g2
g104
tp3478
I0
s(g176
g17
tp3479
I0
s(g36
g9
tp3480
I0
s(g64
g53
tp3481
F0.96729607999322798
s(g81
g43
tp3482
I0
s(g157
g62
tp3483
I0
s(g152
g130
tp3484
I0
s(g143
g53
tp3485
I0
s(g17
g34
tp3486
I0
s(g223
g34
tp3487
I0
s(g93
g53
tp3488
I0
s(g93
g41
tp3489
I0
s(g223
g95
tp3490
I0
s(g23
g93
tp3491
I0
s(g152
g45
tp3492
I0
s(g326
g326
tp3493
F0.99340959018256192
s(g6
g124
tp3494
I0
s(g66
g48
tp3495
I0
s(g95
g113
tp3496
I0
s(g88
g95
tp3497
I0
s(g198
g157
tp3498
I0
s(g2
g48
tp3499
I0
s(g5
g54
tp3500
I0
s(g75
g20
tp3501
I0
s(g14
g41
tp3502
I0
s(g143
g62
tp3503
I0
s(g193
g31
tp3504
I0
s(g97
g198
tp3505
I0
s(g66
g23
tp3506
I0
s(g23
g109
tp3507
I0
s(g17
g124
tp3508
I0
s(g26
g93
tp3509
I0
s(g43
g93
tp3510
I0
s(g14
g83
tp3511
I0
s(g72
g38
tp3512
I0
s(g115
g97
tp3513
I0
s(g58
g43
tp3514
I0
s(g88
g9
tp3515
I0
s(g3
g73
tp3516
I0
s(g43
g160
tp3517
I0
s(g17
g75
tp3518
I0
s(g26
g68
tp3519
I0
s(g54
g238
tp3520
I0
s(g3
g81
tp3521
I0
s(g54
g119
tp3522
I0
s(g223
g97
tp3523
I0
s(g26
g99
tp3524
I0
s(g58
g193
tp3525
F0.71264367816091956
s(g95
g5
tp3526
I0
s(g3
g99
tp3527
I0
s(g54
g223
tp3528
I0
s(g83
g223
tp3529
I0
s(g176
g21
tp3530
I0
s(g238
g75
tp3531
I0
s(g9
g79
tp3532
I0
s(g24
g115
tp3533
I0
s(g143
g119
tp3534
I0
s(g130
g83
tp3535
I0
s(g193
g41
tp3536
I0
s(g26
g193
tp3537
I0
s(g27
g56
tp3538
I0
s(g24
g48
tp3539
I0
s(g9
g66
tp3540
I0
s(g56
g160
tp3541
I0
s(g34
g36
tp3542
F0.95210786590449847
s(g58
g122
tp3543
I0
s(g9
g160
tp3544
I0
s(g109
g69
tp3545
I0
s(g54
g58
tp3546
I0
s(g97
g160
tp3547
I0
s(g36
g81
tp3548
I0
s(g97
g140
tp3549
I0
s(g36
g15
tp3550
I0
s(g5
g64
tp3551
I0
s(g15
g83
tp3552
I0
s(g56
g43
tp3553
I0
s(g140
g160
tp3554
I0
s(g81
g24
tp3555
I0
s(g20
g8
tp3556
I0
s(g88
g21
tp3557
I0
s(g143
g5
tp3558
I0
s(g2
g45
tp3559
I0
s(g17
g193
tp3560
I0
s(g14
g53
tp3561
I0
s(g73
g160
tp3562
I0
s(g48
g72
tp3563
I0
s(g91
g115
tp3564
F0.6216216216216216
s(g152
g2
tp3565
I0
s(g115
g14
tp3566
I0
s(g18
g62
tp3567
I0
s(g56
g113
tp3568
I0
s(g56
g11
tp3569
I0
s(g5
g124
tp3570
I0
s(g36
g66
tp3571
I0
s(g122
g73
tp3572
I0
s(g223
g38
tp3573
I0
s(g88
g107
tp3574
I0
s(g81
g56
tp3575
I0
s(g157
g79
tp3576
I0
s(g122
g34
tp3577
I0
s(g75
g238
tp3578
F0.46739130434782611
s(g2
g66
tp3579
I0
s(g64
g198
tp3580
I0
s(g38
g69
tp3581
I0
s(g8
g66
tp3582
I0
s(g2
g88
tp3583
I0
s(g119
g93
tp3584
I0
s(g23
g49
tp3585
I0
s(g97
g99
tp3586
I0
s(g238
g8
tp3587
I0
s(g15
g21
tp3588
I0
s(g109
g3
tp3589
I0
s(g104
g176
tp3590
I0
s(g8
g69
tp3591
I0
s(g17
g24
tp3592
I0
s(g14
g24
tp3593
I0
s(g41
g9
tp3594
I0
s(g36
g6
tp3595
I0
s(g113
g124
tp3596
I0
s(g21
g124
tp3597
I0
s(g58
g56
tp3598
I0
s(g56
g115
tp3599
I0
s(g107
g72
tp3600
I0
s(g38
g97
tp3601
I0
s(g176
g58
tp3602
I0
s(g33
g79
tp3603
I0
s(g46
g31
tp3604
I0
s(g54
g30
tp3605
I0
s(g27
g143
tp3606
I0
s(g17
g9
tp3607
I0
s(g27
g53
tp3608
I0
s(g122
g113
tp3609
I0
s(g34
g75
tp3610
I0
s(g326
g95
tp3611
I0
s(g176
g104
tp3612
I0
s(g326
g176
tp3613
I0
s(g23
g23
tp3614
F0.38982697519282883
s(g140
g66
tp3615
I0
s(g11
g119
tp3616
I0
s(g223
g326
tp3617
I0
s(g53
g6
tp3618
I0
s(g34
g143
tp3619
I0
s(g72
g64
tp3620
I0
s(g115
g122
tp3621
I0
s(g17
g93
tp3622
I0
s(g20
g77
tp3623
I0
s(g27
g20
tp3624
I0
s(g12
g223
tp3625
I0
s(g24
g73
tp3626
I0
s(g27
g11
tp3627
I0
s(g23
g15
tp3628
I0
s(g81
g27
tp3629
I0
s(g34
g14
tp3630
I0
s(g46
g139
tp3631
I0
s(g64
g140
tp3632
I0
s(g14
g109
tp3633
I0
s(g36
g54
tp3634
I0
s(g56
g53
tp3635
I0
s(g48
g41
tp3636
I0
s(g15
g31
tp3637
I0
s(g5
g140
tp3638
I0
s(g79
g223
tp3639
I0
s(g109
g81
tp3640
I0
s(g115
g33
tp3641
I0
s(g68
g79
tp3642
I0
s(g97
g8
tp3643
I0
s(g68
g176
tp3644
I0
s(g140
g2
tp3645
I0
s(g49
g238
tp3646
I0
s(g109
g326
tp3647
I0
s(g176
g23
tp3648
I0
s(g31
g8
tp3649
I0
s(g58
g157
tp3650
I0
s(g8
g3
tp3651
I0
s(g31
g11
tp3652
I0
s(g176
g83
tp3653
I0
s(g49
g17
tp3654
I0
s(g160
g79
tp3655
I0
s(g18
g21
tp3656
I0
s(g152
g23
tp3657
I0
s(g95
g68
tp3658
I0
s(g11
g45
tp3659
I0
s(g31
g27
tp3660
I0
s(g72
g54
tp3661
I0
s(g99
g21
tp3662
I0
s(g14
g23
tp3663
I0
s(g79
g2
tp3664
I0
s(g48
g56
tp3665
I0
s(g115
g124
tp3666
I0
s(g238
g198
tp3667
I0
s(g88
g62
tp3668
I0
s(g46
g15
tp3669
I0
s(g69
g95
tp3670
I0
s(g18
g33
tp3671
I0
s(g12
g56
tp3672
I0
s(g193
g109
tp3673
I0
s(g88
g14
tp3674
I0
s(g88
g73
tp3675
I0
s(g2
g122
tp3676
I0
s(g49
g48
tp3677
I0
s(g238
g11
tp3678
I0
s(g326
g15
tp3679
I0
s(g15
g26
tp3680
I0
s(g18
g6
tp3681
I0
s(g11
g26
tp3682
I0
s(g124
g11
tp3683
I0
s(g48
g43
tp3684
I0
s(g115
g12
tp3685
I0
s(g27
g54
tp3686
I0
s(g73
g43
tp3687
I0
s(g34
g152
tp3688
I0
s(g97
g46
tp3689
I0
s(g18
g3
tp3690
I0
s(g58
g176
tp3691
I0
s(g79
g124
tp3692
I0
s(g23
g176
tp3693
I0
s(g109
g15
tp3694
I0
s(g73
g77
tp3695
I0
s(g38
g326
tp3696
I0
s(g91
g27
tp3697
I0
s(g8
g38
tp3698
I0
s(g24
g9
tp3699
I0
s(g73
g72
tp3700
I0
s(g130
g143
tp3701
I0
s(g97
g58
tp3702
I0
s(g36
g24
tp3703
I0
s(g38
g152
tp3704
I0
s(g15
g9
tp3705
I0
s(g30
g43
tp3706
I0
s(g122
g30
tp3707
I0
s(g79
g58
tp3708
I0
s(g119
g109
tp3709
I0
s(g8
g68
tp3710
I0
s(g15
g79
tp3711
I0
s(g193
g8
tp3712
I0
s(g6
g30
tp3713
F0.1236156351791531
s(g2
g46
tp3714
I0
s(g73
g56
tp3715
I0
s(g3
g21
tp3716
I0
s(g157
g9
tp3717
I0
s(g36
g160
tp3718
I0
s(g75
g143
tp3719
I0
s(g48
g69
tp3720
I0
s(g62
g113
tp3721
I0
s(g238
g56
tp3722
I0
s(g130
g130
tp3723
F0.99627317543166838
s(g12
g54
tp3724
I0
s(g20
g31
tp3725
I0
s(g81
g18
tp3726
I0
s(g2
g95
tp3727
I0
s(g97
g31
tp3728
I0
s(g73
g11
tp3729
I0
s(g5
g75
tp3730
I0
s(g69
g62
tp3731
I0
s(g36
g95
tp3732
I0
s(g198
g23
tp3733
I0
s(g45
g48
tp3734
I0
s(g2
g238
tp3735
I0
s(g17
g49
tp3736
I0
s(g109
g12
tp3737
I0
s(g157
g14
tp3738
I0
s(g193
g91
tp3739
I0
s(g157
g46
tp3740
I0
s(g124
g193
tp3741
I0
s(g72
g223
tp3742
I0
s(g119
g124
tp3743
I0
s(g130
g69
tp3744
F0.13780157897642575
s(g43
g130
tp3745
I0
s(g198
g99
tp3746
I0
s(g3
g95
tp3747
I0
s(g83
g104
tp3748
F0.99217906062308248
s(g5
g160
tp3749
I0
s(g72
g119
tp3750
I0
s(g33
g54
tp3751
I0
s(g97
g2
tp3752
I0
s(g157
g193
tp3753
I0
s(g88
g99
tp3754
I0
s(g49
g26
tp3755
I0
s(g124
g20
tp3756
F0.96419892693020226
s(g72
g20
tp3757
I0
s(g104
g143
tp3758
I0
s(g31
g130
tp3759
I0
s(g77
g45
tp3760
I0
s(g17
g3
tp3761
I0
s(g49
g11
tp3762
I0
s(g140
g107
tp3763
I0
s(g143
g64
tp3764
I0
s(g31
g72
tp3765
I0
s(g68
g11
tp3766
I0
s(g139
g48
tp3767
I0
s(g64
g143
tp3768
I0
s(g109
g93
tp3769
I0
s(g8
g23
tp3770
I0
s(g53
g64
tp3771
I0
s(g88
g160
tp3772
I0
s(g45
g3
tp3773
I0
s(g88
g12
tp3774
I0
s(g157
g83
tp3775
I0
s(g66
g93
tp3776
F0.29893238434163699
s(g24
g66
tp3777
I0
s(g160
g72
tp3778
I0
s(g48
g119
tp3779
I0
s(g143
g27
tp3780
I0
s(g48
g48
tp3781
I0
s(g93
g33
tp3782
I0
s(g36
g27
tp3783
I0
s(g122
g119
tp3784
I0
s(g223
g53
tp3785
I0
s(g107
g6
tp3786
I0
s(g122
g81
tp3787
I0
s(g54
g66
tp3788
I0
s(g12
g69
tp3789
I0
s(g160
g69
tp3790
I0
s(g3
g75
tp3791
I0
s(g119
g223
tp3792
I0
s(g157
g64
tp3793
I0
s(g91
g12
tp3794
I0
s(g160
g17
tp3795
I0
s(g115
g62
tp3796
I0
s(g54
g53
tp3797
I0
s(g93
g36
tp3798
I0
s(g23
g104
tp3799
I0
s(g3
g53
tp3800
I0
s(g93
g130
tp3801
I0
s(g26
g12
tp3802
I0
s(g95
g30
tp3803
F0.86377056094474902
s(g36
g107
tp3804
I0
s(g81
g124
tp3805
I0
s(g18
g176
tp3806
F0.19044734530696308
s(g54
g15
tp3807
I0
s(g48
g6
tp3808
I0
s(g21
g91
tp3809
I0
s(g88
g79
tp3810
I0
s(g41
g48
tp3811
I0
s(g93
g3
tp3812
I0
s(g53
g122
tp3813
I0
s(g326
g8
tp3814
I0
s(g33
g58
tp3815
I0
s(g109
g122
tp3816
I0
s(g99
g124
tp3817
I0
s(g66
g34
tp3818
I0
s(g79
g14
tp3819
I0
s(g122
g33
tp3820
I0
s(g2
g54
tp3821
I0
s(g21
g75
tp3822
I0
s(g97
g88
tp3823
I0
s(g91
g75
tp3824
I0
s(g176
g143
tp3825
I0
s(g46
g83
tp3826
I0
s(g5
g69
tp3827
I0
s(g72
g26
tp3828
I0
s(g93
g115
tp3829
I0
s(g143
g56
tp3830
I0
s(g83
g81
tp3831
I0
s(g53
g238
tp3832
I0
s(g79
g99
tp3833
I0
s(g41
g104
tp3834
I0
s(g48
g20
tp3835
I0
s(g20
g56
tp3836
I0
s(g21
g27
tp3837
I0
s(g14
g160
tp3838
I0
s(g140
g53
tp3839
I0
s(g75
g56
tp3840
I0
s(g91
g34
tp3841
I0
s(g69
g36
tp3842
I0
s(g91
g17
tp3843
I0
s(g41
g56
tp3844
I0
s(g119
g160
tp3845
I0
s(g26
g14
tp3846
I0
s(g21
g49
tp3847
I0
s(g43
g58
tp3848
I0
s(g62
g58
tp3849
I0
s(g26
g3
tp3850
I0
s(g75
g41
tp3851
I0
s(g30
g6
tp3852
I0
s(g143
g140
tp3853
I0
s(g64
g48
tp3854
I0
s(g12
g139
tp3855
I0
s(g33
g73
tp3856
I0
s(g64
g64
tp3857
F0.69366806826613903
s(g46
g95
tp3858
I0
s(g198
g143
tp3859
I0
s(g8
g139
tp3860
I0
s(g75
g24
tp3861
I0
s(g36
g33
tp3862
I0
s(g38
g77
tp3863
I0
s(g2
g139
tp3864
I0
s(g41
g24
tp3865
I0
s(g21
g83
tp3866
I0
s(g54
g140
tp3867
I0
s(g176
g97
tp3868
I0
s(g115
g21
tp3869
I0
s(g99
g93
tp3870
I0
s(g143
g23
tp3871
I0
s(g75
g160
tp3872
I0
s(g81
g49
tp3873
I0
s(g3
g49
tp3874
I0
s(g107
g223
tp3875
I0
s(g198
g58
tp3876
I0
s(g91
g3
tp3877
I0
s(g36
g152
tp3878
I0
s(g62
g66
tp3879
I0
s(g5
g107
tp3880
I0
s(g12
g18
tp3881
I0
s(g119
g46
tp3882
I0
s(g33
g91
tp3883
I0
s(g140
g23
tp3884
F0.98997191744623803
s(g88
g81
tp3885
I0
s(g124
g72
tp3886
I0
s(g30
g33
tp3887
I0
s(g26
g104
tp3888
I0
s(g79
g53
tp3889
I0
s(g140
g77
tp3890
I0
s(g119
g5
tp3891
I0
s(g64
g91
tp3892
I0
s(g27
g140
tp3893
I0
s(g17
g31
tp3894
I0
s(g157
g48
tp3895
I0
s(g66
g99
tp3896
I0
s(g24
g93
tp3897
I0
s(g93
g139
tp3898
F0.81439847063147019
s(g21
g95
tp3899
I0
s(g223
g152
tp3900
I0
s(g46
g27
tp3901
I0
s(g238
g27
tp3902
I0
s(g9
g139
tp3903
I0
s(g122
g15
tp3904
I0
s(g23
g2
tp3905
I0
s(g36
g97
tp3906
I0
s(g198
g104
tp3907
I0
s(g5
g23
tp3908
I0
s(g2
g198
tp3909
I0
s(g81
g62
tp3910
I0
s(g113
g72
tp3911
I0
s(g73
g238
tp3912
I0
s(g68
g17
tp3913
I0
s(g73
g73
tp3914
F0.48795180722891568
s(g124
g73
tp3915
I0
s(g81
g104
tp3916
I0
s(g115
g88
tp3917
I0
s(g18
g66
tp3918
I0
s(g77
g27
tp3919
I0
s(g83
g198
tp3920
I0
s(g20
g122
tp3921
I0
s(g48
g17
tp3922
I0
s(g69
g140
tp3923
I0
s(g69
g2
tp3924
I0
s(g91
g15
tp3925
I0
s(g2
g119
tp3926
I0
s(g24
g97
tp3927
I0
s(g107
g109
tp3928
I0
s(g38
g6
tp3929
I0
s(g95
g33
tp3930
I0
s(g104
g27
tp3931
I0
s(g223
g6
tp3932
I0
s(g223
g69
tp3933
I0
s(g130
g46
tp3934
I0
s(g20
g17
tp3935
I0
s(g56
g109
tp3936
I0
s(g109
g104
tp3937
I0
s(g143
g43
tp3938
I0
s(g26
g95
tp3939
I0
s(g11
g48
tp3940
I0
s(g95
g140
tp3941
I0
s(g24
g113
tp3942
I0
s(g157
g223
tp3943
I0
s(g139
g53
tp3944
I0
s(g93
g223
tp3945
I0
s(g18
g14
tp3946
I0
s(g56
g54
tp3947
I0
s(g49
g99
tp3948
I0
s(g198
g198
tp3949
I0
s(g223
g58
tp3950
I0
s(g41
g23
tp3951
I0
s(g83
g83
tp3952
F0.67790262172284643
s(g69
g157
tp3953
I0
s(g109
g124
tp3954
I0
s(g15
g91
tp3955
F0.95057622757997373
s(g104
g30
tp3956
I0
s(g64
g152
tp3957
I0
s(g115
g83
tp3958
I0
s(g93
g152
tp3959
I0
s(g139
g31
tp3960
I0
s(g5
g95
tp3961
I0
s(g139
g143
tp3962
I0
s(g11
g160
tp3963
I0
s(g64
g109
tp3964
I0
s(g223
g18
tp3965
I0
s(g49
g43
tp3966
I0
s(g11
g2
tp3967
I0
s(g31
g66
tp3968
I0
s(g41
g130
tp3969
I0
s(g54
g31
tp3970
I0
s(g104
g130
tp3971
I0
s(g53
g139
tp3972
I0
s(g41
g107
tp3973
I0
s(g8
g36
tp3974
I0
s(g5
g46
tp3975
I0
s(g27
g95
tp3976
F0.99195857461553583
s(g43
g81
tp3977
I0
s(g115
g49
tp3978
I0
s(g3
g66
tp3979
I0
s(g27
g64
tp3980
F0.083832335329341312
s(g46
g198
tp3981
F0.45902194719039252
s(g109
g109
tp3982
F0.80084996553847521
s(g140
g12
tp3983
I0
s(g73
g140
tp3984
I0
s(g139
g81
tp3985
I0
s(g122
g176
tp3986
I0
s(g122
g95
tp3987
I0
s(g56
g122
tp3988
I0
s(g5
g24
tp3989
I0
s(g326
g113
tp3990
I0
s(g122
g143
tp3991
I0
s(g198
g77
tp3992
I0
s(g24
g160
tp3993
I0
s(g14
g33
tp3994
I0
s(g66
g20
tp3995
I0
s(g109
g8
tp3996
I0
s(g157
g88
tp3997
I0
s(g95
g18
tp3998
I0
s(g124
g104
tp3999
I0
s(g119
g14
tp4000
I0
s(g176
g77
tp4001
I0
s(g43
g23
tp4002
I0
s(g143
g6
tp4003
I0
s(g122
g53
tp4004
I0
s(g54
g43
tp4005
I0
s(g12
g77
tp4006
I0
s(g79
g12
tp4007
I0
s(g238
g99
tp4008
I0
s(g97
g157
tp4009
I0
s(g69
g119
tp4010
I0
s(g77
g93
tp4011
I0
s(g38
g21
tp4012
I0
s(g14
g139
tp4013
I0
s(g45
g109
tp4014
I0
s(g72
g157
tp4015
I0
s(g9
g20
tp4016
I0
s(g46
g143
tp4017
I0
s(g62
g119
tp4018
F0.85985401459854027
s(g93
g38
tp4019
I0
s(g2
g12
tp4020
I0
s(g20
g113
tp4021
I0
s(g33
g24
tp4022
I0
s(g124
g48
tp4023
I0
s(g27
g26
tp4024
I0
s(g72
g176
tp4025
I0
s(g326
g73
tp4026
I0
s(g238
g81
tp4027
I0
s(g33
g81
tp4028
I0
s(g140
g79
tp4029
I0
s(g41
g81
tp4030
I0
s(g119
g31
tp4031
I0
s(g68
g30
tp4032
I0
s(g109
g43
tp4033
I0
s(g69
g11
tp4034
I0
s(g17
g91
tp4035
I0
s(g160
g119
tp4036
I0
s(g64
g12
tp4037
I0
s(g58
g75
tp4038
I0
s(g17
g139
tp4039
I0
s(g107
g104
tp4040
I0
s(g73
g124
tp4041
I0
s(g130
g139
tp4042
I0
s(g64
g69
tp4043
I0
s(g79
g143
tp4044
I0
s(g12
g49
tp4045
I0
s(g33
g56
tp4046
I0
s(g238
g160
tp4047
I0
s(g79
g21
tp4048
I0
s(g5
g77
tp4049
I0
s(g104
g122
tp4050
I0
s(g41
g152
tp4051
I0
s(g115
g77
tp4052
I0
s(g58
g45
tp4053
I0
s(g2
g113
tp4054
I0
s(g79
g66
tp4055
I0
s(g17
g62
tp4056
I0
s(g31
g99
tp4057
I0
s(g193
g38
tp4058
I0
s(g62
g91
tp4059
I0
s(g119
g95
tp4060
I0
s(g15
g69
tp4061
I0
s(g11
g41
tp4062
I0
s(g77
g122
tp4063
I0
s(g46
g124
tp4064
I0
s(g326
g14
tp4065
I0
s(g12
g73
tp4066
I0
s(g75
g8
tp4067
I0
s(g15
g11
tp4068
I0
s(g43
g30
tp4069
I0
s(g81
g38
tp4070
I0
s(g36
g198
tp4071
I0
s(g21
g31
tp4072
I0
s(g8
g8
tp4073
F0.99856079316287905
s(g11
g31
tp4074
I0
s(g56
g130
tp4075
I0
s(g152
g72
tp4076
I0
s(g31
g176
tp4077
I0
s(g62
g130
tp4078
I0
s(g69
g109
tp4079
F0.58497891678975555
s(g176
g24
tp4080
I0
s(g12
g46
tp4081
I0
s(g41
g20
tp4082
I0
s(g30
g113
tp4083
I0
s(g88
g68
tp4084
I0
s(g24
g75
tp4085
I0
s(g124
g62
tp4086
I0
s(g23
g119
tp4087
I0
s(g223
g99
tp4088
I0
s(g18
g34
tp4089
I0
s(g97
g223
tp4090
I0
s(g64
g66
tp4091
I0
s(g193
g73
tp4092
I0
s(g107
g36
tp4093
I0
s(g326
g53
tp4094
I0
s(g12
g64
tp4095
I0
s(g43
g27
tp4096
I0
s(g107
g12
tp4097
F0.66479476380479718
s(g223
g31
tp4098
I0
s(g157
g69
tp4099
F0.33267764937300226
s(g143
g12
tp4100
I0
s(g91
g130
tp4101
F0.65694356372859863
s(g21
g81
tp4102
I0
s(g34
g30
tp4103
I0
s(g113
g115
tp4104
I0
s(g198
g12
tp4105
I0
s(g104
g109
tp4106
I0
s(g75
g46
tp4107
I0
s(g124
g91
tp4108
I0
s(g75
g109
tp4109
I0
s(g17
g160
tp4110
F0.24056603773584906
s(g45
g53
tp4111
I0
s(g11
g53
tp4112
I0
s(g58
g8
tp4113
I0
s(g15
g30
tp4114
I0
s(g157
g81
tp4115
I0
s(g6
g326
tp4116
I0
s(g79
g36
tp4117
I0
s(g107
g49
tp4118
I0
s(g38
g223
tp4119
I0
s(g54
g113
tp4120
I0
s(g115
g193
tp4121
I0
s(g41
g30
tp4122
I0
s(g58
g143
tp4123
I0
s(g109
g88
tp4124
I0
s(g140
g33
tp4125
I0
s(g53
g14
tp4126
I0
s(g75
g75
tp4127
F0.9952533392206645
s(g53
g113
tp4128
I0
s(g223
g104
tp4129
I0
s(g95
g81
tp4130
I0
s(g79
g75
tp4131
I0
s(g139
g79
tp4132
I0
s(g223
g36
tp4133
I0
s(g91
g64
tp4134
I0
s(g30
g68
tp4135
I0
s(g9
g23
tp4136
I0
s(g130
g5
tp4137
I0
s(g20
g41
tp4138
I0
s(g48
g23
tp4139
I0
s(g97
g77
tp4140
I0
s(g21
g122
tp4141
I0
s(g139
g20
tp4142
I0
s(g139
g326
tp4143
I0
s(g83
g143
tp4144
I0
s(g58
g54
tp4145
I0
s(g31
g20
tp4146
I0
s(g326
g41
tp4147
I0
s(g30
g157
tp4148
I0
s(g157
g130
tp4149
I0
s(g41
g27
tp4150
I0
s(g30
g5
tp4151
I0
s(g8
g12
tp4152
I0
s(g58
g130
tp4153
I0
s(g3
g157
tp4154
I0
s(g48
g326
tp4155
I0
s(g75
g31
tp4156
I0
s(g11
g81
tp4157
I0
s(g143
g107
tp4158
I0
s(g18
g119
tp4159
I0
s(g15
g53
tp4160
I0
s(g26
g109
tp4161
I0
s(g14
g43
tp4162
I0
s(g122
g31
tp4163
I0
s(g66
g64
tp4164
I0
s(g326
g83
tp4165
I0
s(g122
g9
tp4166
I0
s(g97
g3
tp4167
I0
s(g56
g104
tp4168
I0
s(g66
g66
tp4169
F0.99841753745607908
s(g160
g41
tp4170
I0
s(g21
g15
tp4171
I0
s(g66
g160
tp4172
I0
s(g104
g91
tp4173
I0
s(g46
g33
tp4174
I0
s(g109
g6
tp4175
I0
s(g75
g54
tp4176
I0
s(g104
g53
tp4177
I0
s(g11
g58
tp4178
I0
s(g81
g115
tp4179
I0
s(g99
g130
tp4180
I0
s(g176
g49
tp4181
I0
s(g157
g97
tp4182
I0
s(g95
g93
tp4183
I0
s(g11
g176
tp4184
I0
s(g160
g9
tp4185
I0
s(g27
g33
tp4186
I0
s(g176
g115
tp4187
I0
s(g34
g81
tp4188
I0
s(g160
g64
tp4189
I0
s(g58
g15
tp4190
I0
s(g5
g130
tp4191
I0
s(g75
g48
tp4192
I0
s(g81
g139
tp4193
I0
s(g157
g99
tp4194
I0
s(g8
g17
tp4195
I0
s(g81
g97
tp4196
I0
s(g72
g3
tp4197
I0
s(g81
g3
tp4198
I0
s(g69
g46
tp4199
F0.59279152652979272
s(g104
g68
tp4200
I0
s(g198
g139
tp4201
I0
s(g53
g18
tp4202
I0
s(g3
g77
tp4203
I0
s(g9
g48
tp4204
I0
s(g77
g115
tp4205
F0.10526315789473684
s(g2
g31
tp4206
I0
s(g26
g79
tp4207
I0
s(g43
g326
tp4208
I0
s(g8
g72
tp4209
I0
s(g43
g33
tp4210
I0
s(g38
g193
tp4211
I0
s(g26
g9
tp4212
I0
s(g18
g24
tp4213
I0
s(g72
g95
tp4214
I0
s(g83
g2
tp4215
I0
s(g193
g54
tp4216
I0
s(g45
g66
tp4217
I0
s(g34
g31
tp4218
I0
s(g31
g18
tp4219
I0
s(g75
g38
tp4220
I0
s(g58
g97
tp4221
I0
s(g15
g73
tp4222
I0
s(g193
g34
tp4223
I0
s(g41
g124
tp4224
I0
s(g20
g81
tp4225
I0
s(g21
g77
tp4226
I0
s(g58
g17
tp4227
I0
s(g72
g109
tp4228
I0
s(g43
g139
tp4229
I0
s(g157
g198
tp4230
I0
s(g81
g198
tp4231
I0
s(g72
g9
tp4232
I0
s(g157
g45
tp4233
I0
s(g83
g12
tp4234
I0
s(g68
g14
tp4235
I0
s(g95
g109
tp4236
I0
s(g49
g119
tp4237
I0
s(g198
g326
tp4238
I0
s(g79
g238
tp4239
I0
s(g77
g24
tp4240
I0
s(g99
g107
tp4241
I0
s(g54
g95
tp4242
I0
s(g66
g140
tp4243
I0
s(g115
g104
tp4244
I0
s(g122
g48
tp4245
I0
s(g34
g49
tp4246
I0
s(g6
g12
tp4247
I0
s(g46
g58
tp4248
I0
s(g107
g11
tp4249
I0
s(g14
g36
tp4250
I0
s(g62
g95
tp4251
I0
s(g157
g326
tp4252
I0
s(g93
g6
tp4253
I0
s(g24
g124
tp4254
I0
s(g33
g130
tp4255
I0
s(g99
g75
tp4256
I0
s(g56
g2
tp4257
I0
s(g58
g326
tp4258
I0
s(g2
g64
tp4259
I0
s(g115
g72
tp4260
I0
s(g326
g223
tp4261
I0
s(g91
g152
tp4262
I0
s(g68
g97
tp4263
I0
s(g36
g109
tp4264
I0
s(g27
g2
tp4265
I0
s(g21
g223
tp4266
I0
s(g72
g23
tp4267
I0
s(g72
g8
tp4268
I0
s(g97
g79
tp4269
I0
s(g14
g113
tp4270
I0
s(g5
g33
tp4271
I0
s(g88
g31
tp4272
I0
s(g24
g64
tp4273
I0
s(g93
g58
tp4274
I0
s(g69
g31
tp4275
I0
s(g122
g56
tp4276
I0
s(g95
g73
tp4277
I0
s(g326
g54
tp4278
I0
s(g198
g223
tp4279
I0
s(g14
g30
tp4280
I0
s(g45
g99
tp4281
I0
s(g8
g104
tp4282
I0
s(g91
g99
tp4283
I0
s(g119
g33
tp4284
I0
s(g8
g56
tp4285
I0
s(g45
g68
tp4286
I0
s(g119
g9
tp4287
I0
s(g30
g152
tp4288
I0
s(g124
g115
tp4289
I0
s(g31
g104
tp4290
I0
s(g12
g130
tp4291
I0
s(g93
g18
tp4292
I0
s(g72
g107
tp4293
I0
s(g48
g140
tp4294
I0
s(g18
g20
tp4295
I0
s(g69
g115
tp4296
I0
s(g34
g64
tp4297
I0
s(g198
g20
tp4298
I0
s(g69
g193
tp4299
I0
s(g139
g139
tp4300
F0.45512820512820512
s(g223
g62
tp4301
I0
s(g91
g43
tp4302
I0
s(g119
g139
tp4303
I0
s(g34
g107
tp4304
I0
s(g79
g77
tp4305
I0
s(g83
g9
tp4306
I0
s(g12
g66
tp4307
I0
s(g83
g17
tp4308
I0
s(g75
g176
tp4309
I0
s(g88
g20
tp4310
I0
s(g88
g53
tp4311
I0
s(g15
g176
tp4312
I0
s(g21
g48
tp4313
I0
s(g223
g11
tp4314
I0
s(g48
g34
tp4315
I0
s(g81
g14
tp4316
I0
s(g11
g91
tp4317
I0
s(g11
g198
tp4318
I0
s(g54
g88
tp4319
I0
s(g88
g69
tp4320
I0
s(g143
g238
tp4321
I0
s(g62
g122
tp4322
I0
s(g223
g26
tp4323
I0
s(g62
g24
tp4324
I0
s(g53
g15
tp4325
I0
s(g143
g46
tp4326
I0
s(g33
g238
tp4327
I0
s(g152
g69
tp4328
I0
s(g24
g54
tp4329
I0
s(g58
g49
tp4330
I0
s(g15
g48
tp4331
I0
s(g113
g30
tp4332
I0
s(g104
g95
tp4333
I0
s(g20
g6
tp4334
I0
s(g46
g43
tp4335
I0
s(g27
g34
tp4336
I0
s(g88
g223
tp4337
I0
s(g64
g72
tp4338
I0
s(g176
g122
tp4339
I0
s(g54
g2
tp4340
I0
s(g56
g68
tp4341
I0
s(g56
g6
tp4342
I0
s(g97
g66
tp4343
I0
s(g24
g56
tp4344
I0
s(g93
g34
tp4345
I0
s(g326
g58
tp4346
I0
s(g157
g6
tp4347
I0
s(g3
g62
tp4348
I0
s(g66
g17
tp4349
I0
s(g104
g54
tp4350
I0
s(g24
g2
tp4351
I0
s(g223
g30
tp4352
I0
s(g48
g15
tp4353
I0
s(g198
g72
tp4354
I0
s(g113
g238
tp4355
I0
s(g56
g73
tp4356
I0
s(g64
g119
tp4357
I0
s(g238
g3
tp4358
I0
s(g58
g46
tp4359
I0
s(g122
g104
tp4360
I0
s(g43
g119
tp4361
I0
s(g36
g143
tp4362
I0
s(g14
g119
tp4363
I0
s(g5
g113
tp4364
I0
s(g72
g152
tp4365
I0
s(g34
g72
tp4366
I0
s(g88
g11
tp4367
I0
s(g124
g3
tp4368
I0
s(g49
g93
tp4369
I0
s(g238
g130
tp4370
I0
s(g68
g139
tp4371
I0
s(g54
g93
tp4372
I0
s(g77
g38
tp4373
I0
s(g62
g326
tp4374
I0
s(g79
g139
tp4375
I0
s(g99
g104
tp4376
I0
s(g99
g2
tp4377
I0
s(g326
g97
tp4378
I0
s(g6
g43
tp4379
I0
s(g91
g33
tp4380
I0
s(g198
g11
tp4381
I0
s(g119
g176
tp4382
I0
s(g119
g66
tp4383
I0
s(g130
g77
tp4384
I0
s(g8
g83
tp4385
I0
s(g238
g17
tp4386
I0
s(g56
g91
tp4387
I0
s(g73
g23
tp4388
I0
s(g2
g83
tp4389
I0
s(g73
g54
tp4390
I0
s(g130
g79
tp4391
I0
s(g93
g5
tp4392
I0
s(g176
g5
tp4393
I0
s(g33
g83
tp4394
I0
s(g75
g193
tp4395
I0
s(g223
g20
tp4396
I0
s(g15
g193
tp4397
I0
s(g238
g24
tp4398
I0
s(g34
g48
tp4399
I0
s(g130
g326
tp4400
I0
s(g9
g69
tp4401
I0
s(g54
g193
tp4402
I0
s(g69
g6
tp4403
I0
s(g53
g9
tp4404
I0
s(g223
g119
tp4405
I0
s(g143
g33
tp4406
I0
s(g14
g97
tp4407
I0
s(g77
g193
tp4408
I0
s(g198
g17
tp4409
I0
s(g15
g54
tp4410
I0
s(g109
g95
tp4411
I0
s(g95
g104
tp4412
I0
s(g45
g58
tp4413
I0
s(g15
g20
tp4414
I0
s(g143
g75
tp4415
I0
s(g38
g36
tp4416
I0
s(g152
g64
tp4417
I0
s(g14
g326
tp4418
I0
s(g62
g104
tp4419
I0
s(g36
g45
tp4420
I0
s(g9
g83
tp4421
I0
s(g176
g64
tp4422
I0
s(g93
g122
tp4423
I0
s(g11
g8
tp4424
I0
s(g66
g81
tp4425
I0
s(g69
g48
tp4426
I0
s(g38
g88
tp4427
I0
s(g2
g15
tp4428
I0
s(g124
g45
tp4429
I0
s(g139
g238
tp4430
I0
s(g119
g119
tp4431
F0.99481832543443927
s(g69
g107
tp4432
I0
s(g5
g143
tp4433
I0
s(g58
g73
tp4434
I0
s(g160
g31
tp4435
I0
s(g140
g24
tp4436
I0
s(g109
g115
tp4437
I0
s(g11
g5
tp4438
I0
s(g24
g72
tp4439
I0
s(g9
g49
tp4440
I0
s(g122
g62
tp4441
I0
s(g97
g36
tp4442
I0
s(g93
g104
tp4443
I0
s(g23
g124
tp4444
I0
s(g115
g68
tp4445
I0
s(g176
g46
tp4446
I0
s(g124
g66
tp4447
I0
s(g93
g9
tp4448
I0
s(g97
g53
tp4449
I0
s(g93
g56
tp4450
I0
s(g130
g56
tp4451
I0
s(g31
g5
tp4452
F0.050802139037433157
s(g238
g53
tp4453
I0
s(g33
g30
tp4454
I0
s(g27
g152
tp4455
I0
s(g143
g73
tp4456
I0
s(g99
g45
tp4457
I0
s(g93
g81
tp4458
I0
s(g140
g45
tp4459
I0
s(g83
g54
tp4460
I0
s(g6
g58
tp4461
I0
s(g17
g17
tp4462
F0.78764298042886816
s(g104
g69
tp4463
I0
s(g107
g45
tp4464
I0
s(g73
g15
tp4465
I0
s(g115
g152
tp4466
I0
s(g152
g21
tp4467
I0
s(g93
g24
tp4468
I0
s(g11
g68
tp4469
F0.9441665314264257
s(g79
g157
tp4470
I0
s(g58
g30
tp4471
I0
s(g152
g81
tp4472
I0
s(g8
g34
tp4473
I0
s(g157
g5
tp4474
I0
s(g34
g95
tp4475
I0
s(g45
g21
tp4476
I0
s(g95
g119
tp4477
I0
s(g88
g17
tp4478
I0
s(g157
g24
tp4479
I0
s(g58
g62
tp4480
I0
s(g157
g107
tp4481
I0
s(g12
g75
tp4482
I0
s(g53
g140
tp4483
I0
s(g122
g27
tp4484
I0
s(g122
g8
tp4485
I0
s(g6
g68
tp4486
I0
s(g77
g176
tp4487
I0
s(g38
g66
tp4488
I0
s(g326
g23
tp4489
I0
s(g27
g198
tp4490
I0
s(g56
g95
tp4491
I0
s(g113
g68
tp4492
I0
s(g95
g45
tp4493
I0
s(g30
g66
tp4494
I0
s(g198
g30
tp4495
I0
s(g3
g88
tp4496
I0
s(g69
g238
tp4497
I0
s(g27
g8
tp4498
I0
s(g38
g99
tp4499
I0
s(g3
g64
tp4500
I0
s(g91
g49
tp4501
I0
s(g99
g20
tp4502
I0
s(g56
g93
tp4503
I0
s(g15
g109
tp4504
I0
s(g30
g64
tp4505
I0
s(g75
g36
tp4506
I0
s(g109
g38
tp4507
I0
s(g95
g24
tp4508
I0
s(g95
g66
tp4509
I0
s(g176
g2
tp4510
I0
s(g66
g139
tp4511
I0
s(g68
g113
tp4512
I0
s(g73
g81
tp4513
F0.99429215700091611
s(g95
g23
tp4514
I0
s(g30
g79
tp4515
I0
s(g193
g68
tp4516
I0
s(g31
g83
tp4517
I0
s(g81
g143
tp4518
I0
s(g124
g68
tp4519
I0
s(g107
g143
tp4520
I0
s(g30
g45
tp4521
I0
s(g99
g223
tp4522
I0
s(g107
g48
tp4523
I0
s(g34
g6
tp4524
I0
s(g11
g34
tp4525
I0
s(g31
g56
tp4526
I0
s(g31
g34
tp4527
I0
s(g223
g41
tp4528
I0
s(g9
g56
tp4529
F0.94819846963161014
s(g107
g93
tp4530
I0
s(g24
g24
tp4531
F0.21417858214178581
s(g31
g152
tp4532
I0
s(g130
g140
tp4533
I0
s(g17
g69
tp4534
I0
s(g15
g81
tp4535
I0
s(g326
g66
tp4536
I0
s(g6
g79
tp4537
I0
s(g31
g113
tp4538
I0
s(g119
g43
tp4539
I0
s(g140
g104
tp4540
I0
s(g113
g6
tp4541
I0
s(g124
g109
tp4542
I0
s(g17
g45
tp4543
I0
s(g122
g64
tp4544
I0
s(g45
g69
tp4545
I0
s(g122
g26
tp4546
I0
s(g11
g27
tp4547
I0
s(g41
g26
tp4548
I0
s(g26
g21
tp4549
I0
s(g193
g23
tp4550
I0
s(g198
g176
tp4551
I0
s(g66
g31
tp4552
I0
s(g9
g72
tp4553
I0
s(g8
g157
tp4554
I0
s(g26
g143
tp4555
I0
s(g20
g99
tp4556
I0
s(g49
g83
tp4557
I0
s(g119
g75
tp4558
I0
s(g8
g143
tp4559
I0
s(g3
g238
tp4560
I0
s(g77
g56
tp4561
I0
s(g21
g11
tp4562
I0
s(g54
g73
tp4563
I0
s(g83
g73
tp4564
I0
s(g23
g73
tp4565
I0
s(g140
g139
tp4566
I0
s(g73
g8
tp4567
I0
s(g18
g152
tp4568
I0
s(g34
g91
tp4569
I0
s(g326
g24
tp4570
I0
s(g21
g8
tp4571
I0
s(g77
g73
tp4572
I0
s(g24
g27
tp4573
I0
s(g45
g18
tp4574
I0
s(g69
g113
tp4575
I0
s(g45
g62
tp4576
I0
s(g41
g8
tp4577
I0
s(g48
g115
tp4578
I0
s(g9
g124
tp4579
I0
s(g143
g18
tp4580
I0
s(g58
g81
tp4581
I0
s(g23
g14
tp4582
I0
s(g20
g9
tp4583
I0
s(g99
g6
tp4584
I0
s(g157
g31
tp4585
I0
s(g56
g72
tp4586
I0
s(g21
g152
tp4587
I0
s(g81
g157
tp4588
I0
s(g62
g88
tp4589
I0
s(g33
g33
tp4590
F0.99861826403718135
s(g139
g5
tp4591
I0
s(g12
g12
tp4592
F0.84082101178868107
s(g43
g26
tp4593
I0
s(g139
g49
tp4594
F0.96877506750744824
s(g69
g104
tp4595
I0
s(g99
g113
tp4596
I0
s(g30
g326
tp4597
I0
s(g6
g8
tp4598
I0
s(g6
g23
tp4599
I0
s(g5
g326
tp4600
I0
s(g46
g122
tp4601
I0
s(g157
g26
tp4602
I0
s(g64
g38
tp4603
I0
s(g139
g68
tp4604
I0
s(g31
g6
tp4605
I0
s(g43
g69
tp4606
I0
s(g93
g62
tp4607
I0
s(g56
g36
tp4608
I0
s(g66
g97
tp4609
I0
s(g48
g223
tp4610
I0
s(g30
g193
tp4611
I0
s(g157
g124
tp4612
I0
s(g72
g193
tp4613
I0
s(g198
g130
tp4614
I0
s(g160
g43
tp4615
I0
s(g152
g66
tp4616
I0
s(g124
g75
tp4617
I0
s(g17
g115
tp4618
I0
s(g72
g12
tp4619
I0
s(g38
g17
tp4620
I0
s(g119
g143
tp4621
I0
s(g97
g12
tp4622
I0
s(g17
g2
tp4623
I0
s(g26
g75
tp4624
I0
s(g113
g12
tp4625
I0
s(g93
g26
tp4626
I0
s(g326
g109
tp4627
I0
s(g2
g91
tp4628
I0
s(g176
g198
tp4629
I0
s(g139
g160
tp4630
I0
s(g21
g79
tp4631
I0
s(g88
g91
tp4632
I0
s(g11
g152
tp4633
I0
s(g160
g88
tp4634
I0
s(g45
g122
tp4635
I0
s(g79
g49
tp4636
I0
s(g38
g5
tp4637
I0
s(g73
g119
tp4638
I0
s(g49
g95
tp4639
I0
s(g46
g23
tp4640
F0.1111111111111111
s(g122
g122
tp4641
F0.9943256754269183
s(g72
g41
tp4642
I0
s(g26
g46
tp4643
I0
s(g64
g93
tp4644
I0
s(g176
g130
tp4645
I0
s(g31
g54
tp4646
I0
s(g17
g122
tp4647
I0
s(g34
g43
tp4648
I0
s(g119
g17
tp4649
I0
s(g139
g113
tp4650
I0
s(g160
g223
tp4651
I0
s(g34
g93
tp4652
I0
s(g143
g88
tp4653
I0
s(g88
g45
tp4654
I0
s(g24
g36
tp4655
I0
s(g36
g31
tp4656
I0
s(g17
g140
tp4657
I0
s(g24
g140
tp4658
I0
s(g97
g17
tp4659
I0
s(g58
g223
tp4660
I0
s(g27
g36
tp4661
I0
s(g23
g115
tp4662
I0
s(g27
g41
tp4663
I0
s(g119
g72
tp4664
I0
s(g104
g41
tp4665
I0
s(g46
g115
tp4666
I0
s(g15
g140
tp4667
I0
s(g33
g53
tp4668
I0
s(g91
g23
tp4669
I0
s(g238
g64
tp4670
I0
s(g45
g97
tp4671
I0
s(g46
g56
tp4672
I0
s(g122
g139
tp4673
I0
s(g72
g58
tp4674
I0
s(g99
g26
tp4675
I0
s(g6
g24
tp4676
I0
s(g160
g176
tp4677
I0
s(g53
g34
tp4678
I0
s(g77
g9
tp4679
I0
s(g95
g75
tp4680
I0
s(g53
g30
tp4681
I0
s(g49
g3
tp4682
I0
s(g3
g139
tp4683
I0
s(g107
g113
tp4684
I0
s(g73
g49
tp4685
I0
s(g140
g18
tp4686
I0
s(g54
g34
tp4687
I0
s(g122
g115
tp4688
I0
s(g15
g24
tp4689
I0
s(g72
g88
tp4690
I0
s(g238
g9
tp4691
I0
s(g326
g91
tp4692
I0
s(g140
g3
tp4693
I0
s(g124
g54
tp4694
I0
s(g113
g198
tp4695
I0
s(g93
g14
tp4696
I0
s(g58
g198
tp4697
I0
s(g160
g124
tp4698
I0
s(g113
g8
tp4699
I0
s(g152
g31
tp4700
I0
s(g113
g160
tp4701
I0
s(g223
g8
tp4702
I0
s(g99
g43
tp4703
I0
s(g48
g14
tp4704
I0
s(g79
g18
tp4705
I0
s(g15
g56
tp4706
I0
s(g238
g45
tp4707
I0
s(g34
g56
tp4708
I0
s(g73
g3
tp4709
I0
s(g41
g157
tp4710
I0
s(g83
g69
tp4711
I0
s(g27
g43
tp4712
I0
s(g12
g88
tp4713
I0
s(g33
g95
tp4714
I0
s(g30
g34
tp4715
I0
s(g41
g95
tp4716
I0
s(g160
g99
tp4717
I0
s(g43
g83
tp4718
I0
s(g176
g93
tp4719
I0
s(g124
g2
tp4720
I0
s(g124
g198
tp4721
I0
s(g34
g2
tp4722
I0
s(g79
g15
tp4723
I0
s(g124
g41
tp4724
I0
s(g20
g109
tp4725
I0
s(g83
g46
tp4726
I0
s(g77
g5
tp4727
I0
s(g140
g122
tp4728
I0
s(g97
g81
tp4729
I0
s(g143
g326
tp4730
F1
s(g38
g30
tp4731
I0
s(g64
g2
tp4732
I0
s(g31
g41
tp4733
I0
s(g198
g109
tp4734
I0
s(g83
g30
tp4735
I0
s(g21
g160
tp4736
F0.0065789473684210523
s(g30
g119
tp4737
I0
s(g18
g69
tp4738
I0
s(g115
g9
tp4739
I0
s(g157
g104
tp4740
I0
s(g124
g64
tp4741
I0
s(g130
g93
tp4742
I0
s(g193
g83
tp4743
I0
s(g124
g12
tp4744
I0
s(g8
g14
tp4745
I0
s(g176
g176
tp4746
F0.71665306634862846
s(g109
g193
tp4747
I0
s(g139
g75
tp4748
I0
s(g95
g21
tp4749
I0
s(g17
g23
tp4750
I0
s(g223
g81
tp4751
I0
s(g23
g8
tp4752
I0
s(g69
g91
tp4753
I0
s(g18
g12
tp4754
I0
s(g62
g115
tp4755
I0
s(g193
g9
tp4756
I0
s(g46
g48
tp4757
I0
s(g122
g45
tp4758
I0
s(g193
g33
tp4759
I0
s(g12
g5
tp4760
I0
s(g198
g69
tp4761
I0
s(g81
g2
tp4762
I0
s(g124
g43
tp4763
I0
s(g73
g45
tp4764
I0
s(g27
g88
tp4765
I0
s(g193
g62
tp4766
I0
s(g21
g99
tp4767
I0
s(g9
g45
tp4768
I0
s(g49
g139
tp4769
I0
s(g54
g5
tp4770
I0
s(g23
g62
tp4771
I0
s(g160
g122
tp4772
I0
s(g48
g79
tp4773
I0
s(g2
g73
tp4774
I0
s(g198
g27
tp4775
I0
s(g24
g46
tp4776
I0
s(g97
g152
tp4777
I0
s(g5
g53
tp4778
I0
s(g198
g38
tp4779
I0
s(g109
g113
tp4780
I0
s(g143
g160
tp4781
I0
s(g81
g8
tp4782
I0
s(g2
g24
tp4783
I0
s(g143
g115
tp4784
I0
s(g119
g79
tp4785
I0
s(g21
g43
tp4786
I0
s(g140
g68
tp4787
I0
s(g20
g48
tp4788
I0
s(g198
g5
tp4789
I0
s(g38
g83
tp4790
I0
s(g119
g83
tp4791
I0
s(g30
g12
tp4792
I0
s(g45
g23
tp4793
I0
s(g33
g5
tp4794
I0
s(g157
g2
tp4795
I0
s(g152
g20
tp4796
F1
s(g99
g77
tp4797
I0
s(g107
g238
tp4798
I0
s(g58
g69
tp4799
I0
s(g104
g113
tp4800
I0
s(g79
g88
tp4801
I0
s(g124
g69
tp4802
I0
s(g15
g38
tp4803
I0
s(g238
g72
tp4804
I0
s(g68
g77
tp4805
I0
s(g97
g20
tp4806
I0
s(g8
g45
tp4807
I0
s(g43
g9
tp4808
F0.11428571428571428
s(g54
g69
tp4809
I0
s(g93
g95
tp4810
I0
s(g14
g9
tp4811
I0
s(g12
g122
tp4812
I0
s(g26
g45
tp4813
I0
s(g77
g81
tp4814
I0
s(g77
g12
tp4815
I0
s(g43
g152
tp4816
I0
s(g3
g45
tp4817
I0
s(g143
g68
tp4818
I0
s(g20
g160
tp4819
I0
s(g119
g27
tp4820
I0
s(g152
g33
tp4821
I0
s(g8
g30
tp4822
I0
s(g66
g143
tp4823
I0
s(g91
g122
tp4824
I0
s(g26
g198
tp4825
I0
s(g36
g223
tp4826
I0
s(g6
g122
tp4827
I0
s(g9
g43
tp4828
I0
s(g93
g2
tp4829
I0
s(g58
g2
tp4830
I0
s(g93
g160
tp4831
I0
s(g24
g3
tp4832
I0
s(g49
g160
tp4833
I0
s(g109
g62
tp4834
I0
s(g46
g17
tp4835
I0
s(g12
g27
tp4836
I0
s(g68
g49
tp4837
I0
s(g75
g5
tp4838
I0
s(g62
g99
tp4839
I0
s(g26
g130
tp4840
I0
s(g104
g6
tp4841
I0
s(g81
g9
tp4842
I0
s(g64
g21
tp4843
I0
s(g23
g36
tp4844
I0
s(g77
g119
tp4845
I0
s(g193
g104
tp4846
I0
s(g81
g79
tp4847
I0
s(g34
g88
tp4848
I0
s(g31
g157
tp4849
I0
s(g107
g79
tp4850
I0
s(g157
g143
tp4851
I0
s(g119
g8
tp4852
I0
s(g11
g75
tp4853
I0
s(g62
g93
tp4854
I0
s(g88
g124
tp4855
I0
s(g72
g72
tp4856
I0
s(g53
g223
tp4857
I0
s(g68
g83
tp4858
I0
s(g2
g176
tp4859
I0
s(g36
g43
tp4860
I0
s(g152
g30
tp4861
I0
s(g53
g53
tp4862
F0.99532634095973049
s(g64
g107
tp4863
I0
s(g99
g79
tp4864
I0
s(g77
g198
tp4865
I0
s(g31
g124
tp4866
I0
s(g79
g20
tp4867
I0
s(g2
g5
tp4868
I0
s(g198
g152
tp4869
I0
s(g160
g46
tp4870
I0
s(g24
g238
tp4871
I0
s(g34
g140
tp4872
I0
s(g223
g107
tp4873
I0
s(g115
g73
tp4874
I0
s(g97
g107
tp4875
I0
s(g83
g193
tp4876
I0
s(g97
g326
tp4877
I0
s(g68
g46
tp4878
I0
s(g75
g3
tp4879
I0
s(g12
g58
tp4880
I0
s(g53
g73
tp4881
I0
s(g152
g79
tp4882
I0
s(g38
g34
tp4883
I0
s(g75
g97
tp4884
I0
s(g109
g21
tp4885
I0
s(g119
g122
tp4886
I0
s(g41
g97
tp4887
I0
s(g8
g115
tp4888
I0
s(g3
g69
tp4889
I0
s(g26
g18
tp4890
I0
s(g193
g12
tp4891
I0
s(g326
g72
tp4892
I0
s(g198
g113
tp4893
I0
s(g11
g66
tp4894
I0
s(g72
g43
tp4895
I0
s(g139
g56
tp4896
I0
s(g14
g2
tp4897
I0
s(g14
g104
tp4898
I0
s(g33
g104
tp4899
I0
s(g113
g77
tp4900
I0
s(g79
g140
tp4901
I0
s(g53
g27
tp4902
I0
s(g238
g113
tp4903
I0
s(g20
g95
tp4904
I0
s(g124
g14
tp4905
I0
s(g6
g152
tp4906
I0
s(g115
g43
tp4907
I0
s(g99
g143
tp4908
I0
s(g238
g77
tp4909
I0
s(g143
g31
tp4910
I0
s(g109
g160
tp4911
I0
s(g49
g81
tp4912
I0
s(g27
g97
tp4913
I0
s(g139
g24
tp4914
I0
s(g66
g21
tp4915
I0
s(g17
g46
tp4916
I0
s(g48
g54
tp4917
I0
s(g176
g91
tp4918
I0
s(g49
g326
tp4919
I0
s(g12
g2
tp4920
I0
s(g119
g81
tp4921
I0
s(g193
g143
tp4922
I0
s(g64
g26
tp4923
I0
s(g23
g238
tp4924
I0
s(g24
g14
tp4925
I0
s(g73
g9
tp4926
I0
s(g119
g99
tp4927
I0
s(g130
g27
tp4928
I0
s(g81
g91
tp4929
I0
s(g5
g17
tp4930
F0.24019537422784085
s(g27
g15
tp4931
I0
s(g152
g8
tp4932
I0
s(g64
g88
tp4933
I0
s(g75
g11
tp4934
I0
s(g91
g72
tp4935
I0
s(g238
g124
tp4936
I0
s(g115
g48
tp4937
I0
s(g113
g97
tp4938
I0
s(g34
g238
tp4939
I0
s(g8
g223
tp4940
I0
s(g12
g93
tp4941
I0
s(g83
g48
tp4942
I0
s(g139
g46
tp4943
I0
s(g21
g26
tp4944
I0
s(g139
g33
tp4945
I0
s(g20
g152
tp4946
I0
s(g53
g46
tp4947
I0
s(g73
g26
tp4948
I0
s(g3
g223
tp4949
I0
s(g109
g18
tp4950
I0
s(g69
g18
tp4951
I0
s(g18
g198
tp4952
I0
s(g20
g18
tp4953
I0
s(g223
g48
tp4954
I0
s(g30
g95
tp4955
I0
s(g43
g109
tp4956
I0
s(g140
g62
tp4957
I0
s(g238
g12
tp4958
I0
s(g109
g64
tp4959
I0
s(g8
g73
tp4960
I0
s(g198
g2
tp4961
I0
s(g31
g30
tp4962
I0
s(g140
g41
tp4963
I0
s(g30
g238
tp4964
I0
s(g75
g326
tp4965
I0
s(g176
g36
tp4966
I0
s(g115
g81
tp4967
I0
s(g113
g20
tp4968
I0
s(g38
g56
tp4969
I0
s(g27
g122
tp4970
I0
s(g30
g26
tp4971
I0
s(g30
g72
tp4972
I0
s(g140
g152
tp4973
I0
s(g27
g3
tp4974
I0
s(g81
g77
tp4975
I0
s(g34
g79
tp4976
I0
s(g72
g115
tp4977
I0
s(g27
g77
tp4978
I0
s(g20
g107
tp4979
I0
s(g119
g38
tp4980
I0
s(g34
g9
tp4981
I0
s(g24
g49
tp4982
I0
s(g124
g119
tp4983
I0
s(g93
g176
tp4984
I0
s(g99
g72
tp4985
I0
s(g26
g34
tp4986
I0
s(g83
g326
tp4987
I0
s(g139
g23
tp4988
I0
s(g139
g93
tp4989
I0
s(g62
g73
tp4990
I0
s(g223
g238
tp4991
I0
s(g107
g140
tp4992
I0
s(g17
g107
tp4993
I0
s(g66
g83
tp4994
I0
s(g223
g27
tp4995
I0
s(g109
g58
tp4996
I0
s(g143
g122
tp4997
I0
s(g5
g97
tp4998
I0
s(g9
g73
tp4999
I0
s(g23
g27
tp5000
I0
s(g8
g152
tp5001
I0
s(g49
g34
tp5002
I0
s(g6
g26
tp5003
F0.060606060606060608
s(g6
g53
tp5004
I0
s(g27
g73
tp5005
I0
s(g58
g9
tp5006
I0
s(g83
g27
tp5007
I0
s(g54
g77
tp5008
I0
s(g46
g11
tp5009
I0
s(g31
g91
tp5010
I0
s(g72
g30
tp5011
I0
s(g193
g15
tp5012
I0
s(g77
g48
tp5013
I0
s(g130
g17
tp5014
I0
s(g54
g124
tp5015
I0
s(g24
g109
tp5016
I0
s(g36
g79
tp5017
I0
s(g3
g124
tp5018
I0
s(g83
g14
tp5019
I0
s(g95
g152
tp5020
I0
s(g72
g6
tp5021
I0
s(g81
g53
tp5022
I0
s(g130
g18
tp5023
I0
s(g34
g193
tp5024
I0
s(g75
g119
tp5025
I0
s(g8
g53
tp5026
I0
s(g119
g88
tp5027
I0
s(g119
g68
tp5028
I0
s(g124
g49
tp5029
I0
s(g152
g88
tp5030
I0
s(g38
g75
tp5031
I0
s(g6
g9
tp5032
I0
s(g30
g107
tp5033
I0
s(g53
g62
tp5034
I0
s(g9
g88
tp5035
I0
s(g83
g91
tp5036
I0
s(g73
g176
tp5037
I0
s(g77
g223
tp5038
I0
s(g15
g62
tp5039
I0
s(g17
g36
tp5040
I0
s(g3
g26
tp5041
I0
s(g45
g15
tp5042
I0
s(g48
g26
tp5043
I0
s(g30
g83
tp5044
I0
s(g46
g93
tp5045
I0
s(g73
g34
tp5046
I0
s(g11
g33
tp5047
I0
s(g140
g109
tp5048
I0
s(g198
g48
tp5049
I0
s(g2
g109
tp5050
I0
s(g6
g95
tp5051
F0.29414608533344355
s(g326
g238
tp5052
I0
s(g23
g77
tp5053
I0
s(g68
g8
tp5054
I0
s(g56
g46
tp5055
I0
s(g157
g30
tp5056
I0
s(g223
g160
tp5057
I0
s(g107
g69
tp5058
I0
s(g75
g14
tp5059
I0
s(g104
g33
tp5060
I0
s(g56
g8
tp5061
I0
s(g130
g193
tp5062
I0
s(g104
g9
tp5063
I0
s(g6
g3
tp5064
I0
s(g48
g9
tp5065
I0
s(g122
g157
tp5066
I0
s(g68
g45
tp5067
I0
s(g36
g12
tp5068
I0
s(g68
g130
tp5069
I0
s(g46
g326
tp5070
I0
s(g88
g33
tp5071
I0
s(g198
g75
tp5072
I0
s(g31
g109
tp5073
I0
s(g14
g62
tp5074
I0
s(g21
g93
tp5075
I0
s(g69
g79
tp5076
I0
s(g77
g26
tp5077
I0
s(g31
g36
tp5078
I0
s(g58
g139
tp5079
I0
s(g14
g130
tp5080
I0
s(g69
g45
tp5081
I0
s(g326
g20
tp5082
I0
s(g93
g143
tp5083
I0
s(g31
g3
tp5084
I0
s(g49
g143
tp5085
I0
s(g68
g66
tp5086
I0
s(g30
g30
tp5087
F0.6705882352941176
s(g223
g21
tp5088
I0
s(g36
g11
tp5089
I0
s(g160
g109
tp5090
I0
s(g9
g64
tp5091
I0
s(g193
g43
tp5092
F0.65456979251877745
s(g62
g56
tp5093
I0
s(g69
g33
tp5094
I0
s(g130
g113
tp5095
I0
s(g23
g68
tp5096
I0
s(g130
g64
tp5097
I0
s(g99
g49
tp5098
I0
s(g75
g95
tp5099
I0
s(g23
g99
tp5100
I0
s(g53
g83
tp5101
F0.46486486486486489
s(g97
g93
tp5102
I0
s(g45
g193
tp5103
I0
s(g21
g193
tp5104
I0
s(g91
g143
tp5105
I0
s(g62
g23
tp5106
I0
s(g2
g53
tp5107
I0
s(g30
g21
tp5108
I0
s(g91
g193
tp5109
I0
s(g193
g238
tp5110
I0
s(g193
g119
tp5111
I0
s(g62
g48
tp5112
I0
s(g27
g157
tp5113
I0
s(g23
g193
tp5114
I0
s(g104
g17
tp5115
I0
s(g176
g88
tp5116
I0
s(g97
g193
tp5117
I0
s(g119
g21
tp5118
I0
s(g66
g24
tp5119
I0
s(g58
g83
tp5120
I0
s(g176
g72
tp5121
I0
s(g113
g130
tp5122
I0
s(g160
g34
tp5123
I0
s(g109
g99
tp5124
I0
s(g31
g69
tp5125
I0
s(g124
g33
tp5126
I0
s(g79
g45
tp5127
I0
s(g176
g38
tp5128
I0
s(g48
g46
tp5129
I0
s(g64
g79
tp5130
I0
s(g77
g31
tp5131
I0
s(g8
g43
tp5132
I0
s(g17
g48
tp5133
I0
s(g21
g104
tp5134
I0
s(g2
g62
tp5135
I0
s(g69
g223
tp5136
I0
s(g8
g62
tp5137
I0
s(g97
g30
tp5138
I0
s(g122
g72
tp5139
I0
s(g93
g109
tp5140
I0
s(g54
g130
tp5141
I0
s(g3
g14
tp5142
I0
s(g43
g43
tp5143
F0.12879484820607176
s(g72
g45
tp5144
I0
s(g139
g124
tp5145
I0
s(g30
g3
tp5146
I0
s(g15
g36
tp5147
I0
s(g119
g36
tp5148
I0
s(g38
g238
tp5149
I0
s(g20
g91
tp5150
I0
s(g48
g31
tp5151
I0
s(g73
g198
tp5152
I0
s(g83
g93
tp5153
I0
s(g64
g43
tp5154
I0
s(g26
g119
tp5155
I0
s(g48
g124
tp5156
I0
s(g143
g54
tp5157
I0
s(g8
g21
tp5158
I0
s(g45
g17
tp5159
I0
s(g8
g160
tp5160
I0
s(g8
g49
tp5161
I0
s(g49
g107
tp5162
I0
s(g48
g27
tp5163
I0
s(g15
g33
tp5164
I0
s(g58
g48
tp5165
I0
s(g9
g9
tp5166
F0.62605042016806722
s(g143
g38
tp5167
I0
s(g3
g83
tp5168
I0
s(g77
g75
tp5169
I0
s(g33
g193
tp5170
I0
s(g14
g21
tp5171
I0
s(g56
g14
tp5172
I0
s(g11
g77
tp5173
I0
s(g3
g115
tp5174
I0
s(g95
g139
tp5175
I0
s(g27
g326
tp5176
I0
s(g124
g97
tp5177
I0
s(g36
g38
tp5178
I0
s(g58
g95
tp5179
I0
s(g193
g48
tp5180
I0
s(g66
g326
tp5181
I0
s(g6
g93
tp5182
I0
s(g34
g157
tp5183
I0
s(g119
g69
tp5184
I0
s(g34
g73
tp5185
I0
s(g88
g8
tp5186
I0
s(g53
g130
tp5187
I0
s(g20
g130
tp5188
I0
s(g58
g160
tp5189
I0
s(g33
g27
tp5190
F0.29333333333333333
s(g33
g20
tp5191
I0
s(g130
g122
tp5192
I0
s(g88
g176
tp5193
I0
s(g9
g26
tp5194
I0
s(g27
g45
tp5195
I0
s(g99
g48
tp5196
I0
s(g38
g91
tp5197
I0
s(g326
g68
tp5198
I0
s(g83
g66
tp5199
I0
s(g38
g41
tp5200
I0
s(g8
g79
tp5201
I0
s(g34
g46
tp5202
I0
s(g152
g238
tp5203
I0
s(g157
g12
tp5204
I0
s(g104
g119
tp5205
I0
s(g62
g64
tp5206
I0
s(g109
g14
tp5207
I0
s(g20
g72
tp5208
I0
s(g41
g99
tp5209
I0
s(g3
g30
tp5210
I0
s(g77
g83
tp5211
I0
s(g54
g122
tp5212
I0
s(g69
g58
tp5213
I0
s(g83
g45
tp5214
I0
s(g326
g88
tp5215
I0
s(g43
g122
tp5216
I0
s(g157
g68
tp5217
I0
s(g9
g130
tp5218
I0
s(g43
g2
tp5219
F0.99551868072441541
s(g77
g30
tp5220
I0
s(g176
g48
tp5221
I0
s(g152
g119
tp5222
I0
s(g75
g223
tp5223
I0
s(g3
g104
tp5224
I0
s(g326
g157
tp5225
I0
s(g81
g30
tp5226
I0
s(g17
g64
tp5227
I0
s(g79
g72
tp5228
I0
s(g130
g75
tp5229
I0
s(g68
g223
tp5230
I0
s(g45
g326
tp5231
I0
s(g64
g45
tp5232
I0
s(g152
g122
tp5233
I0
s(g45
g41
tp5234
I0
s(g2
g38
tp5235
I0
s(g160
g33
tp5236
I0
s(g56
g139
tp5237
I0
s(g193
g139
tp5238
I0
s(g33
g45
tp5239
I0
s(g33
g62
tp5240
I0
s(g81
g12
tp5241
I0
s(g73
g53
tp5242
I0
s(g81
g45
tp5243
I0
s(g198
g79
tp5244
I0
s(g176
g139
tp5245
I0
s(g139
g157
tp5246
I0
s(g53
g49
tp5247
I0
s(g34
g113
tp5248
I0
s(g193
g152
tp5249
I0
s(g17
g41
tp5250
I0
s(g88
g109
tp5251
I0
s(g119
g18
tp5252
I0
s(g58
g36
tp5253
I0
s(g115
g11
tp5254
I0
s(g198
g66
tp5255
F1
s(g20
g27
tp5256
I0
s(g23
g34
tp5257
I0
s(g58
g107
tp5258
I0
s(g33
g176
tp5259
I0
s(g33
g66
tp5260
I0
s(g11
g83
tp5261
I0
s(g95
g193
tp5262
I0
s(g97
g18
tp5263
F0.93727810650887577
s(g81
g66
tp5264
I0
s(g68
g24
tp5265
I0
s(g36
g176
tp5266
I0
s(g72
g11
tp5267
I0
s(g5
g62
tp5268
I0
s(g17
g20
tp5269
I0
s(g109
g23
tp5270
I0
s(g34
g34
tp5271
F0.74667036625971139
s(g143
g176
tp5272
I0
s(g95
g143
tp5273
I0
s(g17
g88
tp5274
I0
s(g113
g122
tp5275
I0
s(g21
g38
tp5276
I0
s(g18
g139
tp5277
I0
s(g64
g30
tp5278
I0
s(g15
g17
tp5279
I0
s(g113
g91
tp5280
I0
s(g115
g31
tp5281
I0
s(g83
g33
tp5282
I0
s(g58
g14
tp5283
I0
s(g23
g79
tp5284
I0
s(g68
g56
tp5285
I0
s(g45
g88
tp5286
I0
s(g17
g95
tp5287
I0
s(g38
g157
tp5288
I0
s(g160
g66
tp5289
I0
s(g21
g18
tp5290
I0
s(g104
g26
tp5291
I0
s(g97
g115
tp5292
I0
s(g88
g23
tp5293
I0
s(g139
g17
tp5294
I0
s(g45
g119
tp5295
I0
s(g152
g12
tp5296
I0
s(g91
g14
tp5297
I0
s(g21
g72
tp5298
I0
s(g73
g41
tp5299
I0
s(g140
g56
tp5300
I0
s(g83
g99
tp5301
I0
s(g8
g97
tp5302
I0
s(g83
g56
tp5303
I0
s(g198
g49
tp5304
I0
s(g46
g34
tp5305
I0
s(g11
g124
tp5306
I0
s(g53
g3
tp5307
I0
s(g46
g38
tp5308
I0
s(g81
g223
tp5309
I0
s(g62
g77
tp5310
I0
s(g79
g17
tp5311
I0
s(g18
g157
tp5312
I0
s(g20
g49
tp5313
I0
s(g238
g26
tp5314
I0
s(g109
g79
tp5315
I0
s(g26
g176
tp5316
I0
s(g107
g73
tp5317
I0
s(g36
g104
tp5318
I0
s(g157
g41
tp5319
I0
s(g93
g15
tp5320
I0
s(g124
g140
tp5321
I0
s(g49
g69
tp5322
I0
s(g58
g24
tp5323
I0
s(g41
g6
tp5324
F0.97674295170392
s(g109
g48
tp5325
I0
s(g12
g31
tp5326
I0
s(g26
g152
tp5327
I0
s(g69
g5
tp5328
I0
s(g113
g46
tp5329
I0
s(g107
g34
tp5330
I0
s(g107
g43
tp5331
I0
s(g34
g17
tp5332
I0
s(g69
g14
tp5333
I0
s(g64
g115
tp5334
I0
s(g48
g113
tp5335
I0
s(g122
g11
tp5336
I0
s(g124
g9
tp5337
I0
s(g64
g58
tp5338
I0
s(g54
g45
tp5339
I0
s(g326
g79
tp5340
I0
s(g41
g58
tp5341
I0
s(g68
g23
tp5342
I0
s(g139
g18
tp5343
I0
s(g68
g54
tp5344
I0
s(g36
g193
tp5345
I0
s(g139
g36
tp5346
I0
s(g46
g21
tp5347
I0
s(g3
g143
tp5348
I0
s(g53
g176
tp5349
I0
s(g130
g124
tp5350
I0
s(g157
g11
tp5351
I0
s(g24
g17
tp5352
I0
s(g15
g104
tp5353
I0
s(g75
g122
tp5354
I0
s(g109
g75
tp5355
F0.93120128997581297
s(g79
g26
tp5356
I0
s(g27
g18
tp5357
I0
s(g72
g14
tp5358
I0
s(g113
g58
tp5359
I0
s(g83
g20
tp5360
I0
s(g160
g139
tp5361
I0
s(g9
g198
tp5362
I0
s(g43
g68
tp5363
I0
s(g160
g198
tp5364
I0
s(g109
g2
tp5365
I0
s(g14
g68
tp5366
I0
s(g91
g66
tp5367
I0
s(g56
g238
tp5368
I0
s(g75
g88
tp5369
I0
s(g104
g23
tp5370
I0
s(g122
g18
tp5371
I0
s(g157
g160
tp5372
I0
s(g36
g93
tp5373
I0
s(g238
g107
tp5374
I0
s(g9
g157
tp5375
I0
s(g99
g176
tp5376
I0
s(g73
g75
tp5377
I0
s(g45
g113
tp5378
I0
s(g104
g75
tp5379
I0
s(g11
g69
tp5380
I0
s(g48
g36
tp5381
I0
s(g238
g48
tp5382
I0
s(g54
g143
tp5383
I0
s(g113
g119
tp5384
I0
s(g73
g17
tp5385
I0
s(g152
g93
tp5386
I0
s(g43
g91
tp5387
I0
s(g99
g17
tp5388
I0
s(g2
g115
tp5389
I0
s(g140
g43
tp5390
I0
s(g34
g326
tp5391
I0
s(g119
g326
tp5392
I0
s(g48
g3
tp5393
I0
s(g223
g143
tp5394
I0
s(g77
g97
tp5395
I0
s(g122
g193
tp5396
F0.17643796945102586
s(g93
g54
tp5397
I0
s(g69
g66
tp5398
I0
s(g6
g11
tp5399
I0
s(g12
g36
tp5400
I0
s(g113
g79
tp5401
I0
s(g34
g130
tp5402
I0
s(g130
g66
tp5403
I0
s.