(dp1
((I8
I5
tp2
(I3
I3
tp3
tp4
I0
s((I4
I10
tp5
(I10
I5
tp6
tp7
I0
s((I6
I2
tp8
(I1
I8
tp9
tp10
I0
s((I3
I12
tp11
(I5
I2
tp12
tp13
I0
s((I6
I12
tp14
(I5
I10
tp15
tp16
I0
s((I3
I6
tp17
(I0
I6
tp18
tp19
I0
s((I9
I4
tp20
(I8
I6
tp21
tp22
I0
s(g17
(I4
I13
tp23
tp24
I0
s((I2
I5
tp25
(I8
I4
tp26
tp27
I0
s((I2
I9
tp28
(I4
I2
tp29
tp30
I0
s((I7
I3
tp31
(I7
I5
tp32
tp33
I0
s((I8
I10
tp34
(I8
I8
tp35
tp36
I0
s((I3
I11
tp37
(I7
I2
tp38
tp39
I0
s((I8
I12
tp40
(I4
I3
tp41
tp42
I0
s(g35
(I6
I4
tp43
tp44
I0
s((I10
I7
tp45
(I0
I8
tp46
tp47
I0
s(g6
g18
tp48
I0
s((I6
I11
tp49
g11
tp50
I0
s(g28
(I9
I11
tp51
tp52
I0
s((I6
I3
tp53
g3
tp54
I0
s(g26
g40
tp55
I0
s((I7
I13
tp56
(I5
I4
tp57
tp58
I0
s(g25
(I8
I7
tp59
tp60
I0
s((I0
I7
tp61
(I1
I10
tp62
tp63
I0
s(g15
g46
tp64
I0
s((I4
I11
tp65
g2
tp66
I0
s((I3
I7
tp67
g25
tp68
I0
s((I4
I12
tp69
g6
tp70
I0
s((I10
I10
tp71
(I9
I10
tp72
tp73
F0.26701570680628273
s((I9
I7
tp74
g37
tp75
I0
s(g40
g18
tp76
I0
s((I2
I11
tp77
(I3
I4
tp78
tp79
I0
s(g3
(I2
I4
tp80
tp81
I0
s(g78
(I3
I9
tp82
tp83
I0
s((I3
I10
tp84
g6
tp85
I0
s(g15
g71
tp86
I0
s((I7
I11
tp87
(I10
I6
tp88
tp89
I0
s((I1
I9
tp90
(I7
I4
tp91
tp92
I0
s(g32
g23
tp93
I0
s(g38
(I1
I6
tp94
tp95
I0
s(g82
(I8
I13
tp96
tp97
I0
s(g40
g71
tp98
I0
s(g46
g8
tp99
I0
s(g38
(I6
I10
tp100
tp101
I0
s(g67
(I2
I7
tp102
tp103
I0
s(g43
g82
tp104
I0
s(g31
(I2
I8
tp105
tp106
I0
s((I8
I3
tp107
g67
tp108
I0
s(g102
g38
tp109
I0
s((I3
I5
tp110
(I10
I9
tp111
tp112
I0
s(g8
g35
tp113
I0
s((I11
I8
tp114
(I5
I13
tp115
tp116
I0
s(g114
g57
tp117
I0
s(g78
(I4
I4
tp118
tp119
I0
s(g91
g17
tp120
I0
s(g41
g2
tp121
I0
s((I1
I5
tp122
g37
tp123
I0
s(g18
(I8
I9
tp124
tp125
I0
s(g78
g69
tp126
I0
s(g80
g34
tp127
I0
s(g40
g94
tp128
I0
s(g21
(I8
I11
tp129
tp130
I0
s(g78
g26
tp131
I0
s(g20
g6
tp132
F0.35928471670728701
s((I9
I6
tp133
g122
tp134
I0
s(g102
g110
tp135
I0
s((I9
I8
tp136
g45
tp137
I0
s(g8
g40
tp138
I0
s(g61
(I9
I5
tp139
tp140
I0
s(g61
g40
tp141
I0
s(g18
(I11
I7
tp142
tp143
I0
s(g105
g129
tp144
I0
s((I5
I12
tp145
(I1
I7
tp146
tp147
I0
s(g71
(I6
I5
tp148
tp149
I0
s(g2
g31
tp150
I0
s(g5
g105
tp151
I0
s(g78
g40
tp152
I0
s((I3
I8
tp153
g62
tp154
I0
s(g2
g139
tp155
I0
s(g105
g40
tp156
I0
s(g100
g145
tp157
I0
s((I9
I9
tp158
g110
tp159
I0
s(g80
g80
tp160
F0.70747915074592149
s(g124
(I5
I11
tp161
tp162
I0
s(g82
g161
tp163
I0
s((I2
I6
tp164
g31
tp165
I0
s(g28
g148
tp166
I0
s(g23
(I6
I13
tp167
tp168
I0
s(g25
g111
tp169
I0
s(g91
g90
tp170
I0
s(g20
g49
tp171
I0
s(g51
g20
tp172
I0
s((I4
I5
tp173
g78
tp174
F0.060391630574025502
s(g43
g129
tp175
I0
s(g59
g31
tp176
I0
s(g9
g45
tp177
I0
s((I2
I10
tp178
g111
tp179
I0
s(g26
g136
tp180
I0
s(g87
g84
tp181
I0
s(g45
g164
tp182
I0
s(g32
g133
tp183
I0
s(g6
g2
tp184
I0
s(g178
g14
tp185
I0
s(g11
g3
tp186
I0
s(g14
g20
tp187
I0
s(g148
g107
tp188
I0
s(g74
g72
tp189
I0
s((I11
I6
tp190
g114
tp191
I0
s(g94
g56
tp192
I0
s(g80
g31
tp193
I0
s(g173
g69
tp194
I0
s(g53
g102
tp195
I0
s(g37
g105
tp196
I0
s(g12
g18
tp197
I0
s(g65
g115
tp198
I0
s(g49
g61
tp199
I0
s(g133
g53
tp200
I0
s(g122
g136
tp201
I0
s(g51
g167
tp202
I0
s(g72
g107
tp203
I0
s(g71
g45
tp204
I0
s(g133
g90
tp205
I0
s(g21
g158
tp206
I0
s(g161
g65
tp207
I0
s(g21
g46
tp208
I0
s(g133
g37
tp209
I0
s(g153
g61
tp210
I0
s(g26
g38
tp211
I0
s(g12
g69
tp212
I0
s(g72
g136
tp213
I0
s((I11
I9
tp214
g84
tp215
I0
s(g122
g51
tp216
I0
s(g94
g87
tp217
I0
s(g69
g69
tp218
F0.73333333333333328
s(g124
g148
tp219
I0
s(g53
g78
tp220
I0
s(g142
g49
tp221
I0
s(g28
(I0
I9
tp222
tp223
I0
s(g153
g51
tp224
I0
s(g25
g67
tp225
I0
s(g91
g122
tp226
I0
s(g114
g222
tp227
I0
s(g14
g65
tp228
I0
s(g61
g3
tp229
I0
s(g17
g37
tp230
I0
s(g15
g80
tp231
I0
s(g23
g105
tp232
I0
s(g142
g115
tp233
I0
s(g129
(I10
I8
tp234
tp235
I0
s((I5
I5
tp236
g115
tp237
I0
s(g136
g14
tp238
I0
s(g28
g72
tp239
I0
s(g167
g71
tp240
I0
s(g12
g35
tp241
I0
s(g111
g35
tp242
I0
s(g178
g51
tp243
I0
s(g45
g53
tp244
I0
s(g20
g74
tp245
I0
s(g145
g133
tp246
I0
s(g122
g111
tp247
I0
s(g91
g173
tp248
I0
s(g5
g167
tp249
I0
s(g178
g107
tp250
I0
s(g51
g72
tp251
I0
s(g100
g6
tp252
I0
s(g34
g124
tp253
F0.25850340136054423
s(g25
g57
tp254
I0
s(g25
g74
tp255
I0
s(g100
g146
tp256
I0
s(g87
g56
tp257
I0
s(g59
g78
tp258
I0
s(g53
g12
tp259
I0
s(g87
g41
tp260
I0
s(g29
g133
tp261
I0
s(g8
g114
tp262
I0
s(g12
g122
tp263
I0
s(g5
g67
tp264
I0
s(g236
g91
tp265
I0
s(g167
g41
tp266
I0
s(g234
g37
tp267
I0
s(g84
g115
tp268
I0
s(g25
g20
tp269
I0
s(g77
g14
tp270
I0
s(g161
g71
tp271
I0
s(g78
(I7
I12
tp272
tp273
I0
s(g105
g84
tp274
I0
s(g158
g9
tp275
I0
s(g90
g56
tp276
I0
s(g40
g78
tp277
I0
s(g114
g53
tp278
I0
s(g124
g37
tp279
I0
s(g2
g222
tp280
I0
s((I5
I3
tp281
g88
tp282
I0
s(g173
g62
tp283
I0
s(g234
g20
tp284
I0
s(g45
g6
tp285
I0
s(g32
g153
tp286
I0
s(g57
g96
tp287
I0
s(g110
g8
tp288
I0
s(g51
g18
tp289
I0
s(g190
g6
tp290
I0
s(g9
g34
tp291
I0
s(g222
g29
tp292
I0
s(g190
g2
tp293
I0
s(g57
g107
tp294
I0
s(g38
(I7
I10
tp295
tp296
I0
s(g67
g133
tp297
I0
s(g139
g56
tp298
I0
s(g40
g158
tp299
I0
s(g11
g18
tp300
I0
s(g102
g161
tp301
I0
s(g38
g62
tp302
I0
s(g59
g35
tp303
I0
s(g90
g17
tp304
I0
s(g115
g12
tp305
I0
s(g49
g272
tp306
I0
s(g35
g107
tp307
I0
s(g20
g80
tp308
I0
s(g61
g61
tp309
F0.93333333333333335
s(g67
g114
tp310
I0
s(g45
g29
tp311
I0
s(g133
g18
tp312
I0
s(g15
g32
tp313
I0
s(g20
g167
tp314
I0
s(g281
g69
tp315
I0
s(g146
g295
tp316
I0
s(g110
g51
tp317
I0
s(g145
g14
tp318
I0
s(g26
g164
tp319
I0
s(g3
g234
tp320
I0
s(g87
g49
tp321
I0
s(g234
g148
tp322
I0
s(g142
g5
tp323
I0
s(g173
g61
tp324
I0
s(g133
g11
tp325
I0
s(g107
g35
tp326
I0
s(g21
g222
tp327
I0
s(g91
g45
tp328
I0
s(g122
g190
tp329
I0
s(g173
g94
tp330
I0
s(g94
g145
tp331
I0
s(g35
g77
tp332
I0
s(g57
g77
tp333
I0
s(g136
g72
tp334
I0
s(g14
g57
tp335
I0
s(g80
g14
tp336
I0
s(g49
g26
tp337
I0
s(g161
g80
tp338
I0
s(g78
g21
tp339
I0
s(g281
g281
tp340
F0.99480725762111311
s(g281
g84
tp341
I0
s(g161
g110
tp342
I0
s(g28
g69
tp343
I0
s(g9
g102
tp344
I0
s(g21
g136
tp345
I0
s(g136
g145
tp346
I0
s(g51
g161
tp347
I0
s(g114
g118
tp348
I0
s(g56
g12
tp349
I0
s(g164
g214
tp350
I0
s(g35
g61
tp351
I0
s(g110
g12
tp352
I0
s(g57
g59
tp353
I0
s(g139
g88
tp354
I0
s(g14
g5
tp355
I0
s(g272
g161
tp356
I0
s(g124
g145
tp357
I0
s(g53
g214
tp358
I0
s(g29
g148
tp359
I0
s(g96
g8
tp360
I0
s(g90
g46
tp361
I0
s(g56
g45
tp362
I0
s(g34
g21
tp363
I0
s(g12
g153
tp364
I0
s(g145
g139
tp365
I0
s(g72
g102
tp366
I0
s(g78
g61
tp367
I0
s(g139
g146
tp368
I0
s(g234
g111
tp369
F0.99416820135052175
s(g77
g45
tp370
I0
s(g49
g62
tp371
I0
s(g6
g53
tp372
I0
s(g59
g107
tp373
I0
s(g9
g67
tp374
I0
s(g129
g53
tp375
I0
s(g77
g71
tp376
I0
s(g110
g236
tp377
I0
s(g91
g6
tp378
I0
s(g31
g96
tp379
I0
s(g136
g77
tp380
I0
s(g32
g57
tp381
I0
s(g148
g129
tp382
I0
s(g17
g43
tp383
I0
s(g90
g37
tp384
I0
s(g107
g3
tp385
I0
s(g35
g62
tp386
I0
s(g40
g46
tp387
I0
s(g122
g102
tp388
I0
s(g6
g100
tp389
I0
s(g178
g145
tp390
I0
s(g148
g41
tp391
I0
s(g214
g234
tp392
I0
s(g25
g100
tp393
I0
s(g115
g190
tp394
I0
s(g77
g84
tp395
I0
s(g20
g26
tp396
I0
s(g158
g96
tp397
I0
s(g56
g46
tp398
I0
s(g9
g100
tp399
I0
s(g87
g111
tp400
I0
s(g5
g153
tp401
I0
s(g18
g88
tp402
I0
s(g145
g67
tp403
I0
s(g46
g115
tp404
I0
s(g161
g12
tp405
I0
s(g61
g234
tp406
I0
s(g74
g80
tp407
I0
s(g20
g40
tp408
I0
s(g145
g94
tp409
I0
s(g111
g15
tp410
I0
s(g161
g78
tp411
I0
s(g178
g32
tp412
I0
s(g281
g102
tp413
I0
s(g49
g57
tp414
I0
s(g20
g94
tp415
I0
s(g133
g91
tp416
I0
s(g146
g59
tp417
I0
s(g26
g3
tp418
I0
s(g80
g77
tp419
I0
s(g45
g105
tp420
I0
s(g142
g236
tp421
I0
s(g28
g57
tp422
I0
s(g190
g124
tp423
I0
s(g158
g69
tp424
I0
s(g148
g82
tp425
I0
s(g88
g178
tp426
I0
s(g5
g100
tp427
I0
s(g3
g74
tp428
I0
s(g281
g71
tp429
I0
s(g272
g77
tp430
I0
s(g45
g31
tp431
I0
s(g122
g148
tp432
I0
s(g21
g139
tp433
F0.74875256543889024
s(g272
g84
tp434
I0
s(g62
g43
tp435
I0
s(g142
g129
tp436
I0
s(g110
g164
tp437
F0.097972972972972971
s(g88
g80
tp438
I0
s(g146
g96
tp439
I0
s(g12
g190
tp440
I0
s(g69
g28
tp441
I0
s(g23
g38
tp442
I0
s(g153
g45
tp443
I0
s(g272
g32
tp444
I0
s(g6
g31
tp445
I0
s(g96
g91
tp446
I0
s(g41
g8
tp447
I0
s(g153
g167
tp448
I0
s(g105
g100
tp449
I0
s(g41
g56
tp450
I0
s(g46
g14
tp451
I0
s(g37
g114
tp452
I0
s(g236
g17
tp453
I0
s(g96
g43
tp454
I0
s(g88
g35
tp455
I0
s(g87
g78
tp456
I0
s(g9
g129
tp457
I0
s(g3
g65
tp458
I0
s(g139
g23
tp459
I0
s(g41
g146
tp460
I0
s(g34
g129
tp461
I0
s(g21
g133
tp462
I0
s(g61
g37
tp463
I0
s(g91
g5
tp464
I0
s(g272
g65
tp465
I0
s(g29
g102
tp466
I0
s(g37
g71
tp467
I0
s(g115
g124
tp468
I0
s(g94
g32
tp469
I0
s(g142
g161
tp470
I0
s(g173
g28
tp471
I0
s(g51
g31
tp472
I0
s(g90
g222
tp473
I0
s(g37
g56
tp474
I0
s(g214
g21
tp475
I0
s(g28
g71
tp476
I0
s(g272
g107
tp477
I0
s(g111
g12
tp478
I0
s(g145
g32
tp479
I0
s(g11
g34
tp480
I0
s(g9
g23
tp481
I0
s(g281
g29
tp482
I0
s(g94
g178
tp483
I0
s(g56
g107
tp484
I0
s(g107
g57
tp485
I0
s(g15
g145
tp486
I0
s(g2
g122
tp487
I0
s(g234
g87
tp488
I0
s(g59
g115
tp489
I0
s(g100
g49
tp490
I0
s(g78
g84
tp491
I0
s(g94
g31
tp492
I0
s(g234
g122
tp493
I0
s(g164
g65
tp494
I0
s(g14
g161
tp495
I0
s(g118
g31
tp496
I0
s(g90
g84
tp497
I0
s(g84
g74
tp498
I0
s(g114
g40
tp499
I0
s(g115
g148
tp500
I0
s(g20
g145
tp501
I0
s(g61
g146
tp502
I0
s(g34
g88
tp503
I0
s(g34
g59
tp504
I0
s(g20
g8
tp505
I0
s(g133
g38
tp506
I0
s(g56
g3
tp507
I0
s(g57
g114
tp508
I0
s(g87
g82
tp509
I0
s(g214
g25
tp510
I0
s(g2
g45
tp511
I0
s(g161
g8
tp512
I0
s(g9
g133
tp513
I0
s(g122
g17
tp514
I0
s(g49
g46
tp515
I0
s(g139
g133
tp516
I0
s(g2
g56
tp517
I0
s(g3
g100
tp518
I0
s(g234
g34
tp519
I0
s(g84
g158
tp520
I0
s(g18
g65
tp521
I0
s(g236
g222
tp522
I0
s(g14
g34
tp523
I0
s(g29
g111
tp524
I0
s(g53
g178
tp525
I0
s(g96
g57
tp526
I0
s(g67
g164
tp527
I0
s(g124
g158
tp528
I0
s(g77
g295
tp529
I0
s(g69
g110
tp530
I0
s(g164
g20
tp531
I0
s(g71
g31
tp532
I0
s(g77
g158
tp533
I0
s(g124
g49
tp534
I0
s(g105
g17
tp535
I0
s(g21
g29
tp536
I0
s(g161
g9
tp537
I0
s(g236
g8
tp538
I0
s(g38
g214
tp539
I0
s(g234
g82
tp540
I0
s(g77
g72
tp541
I0
s(g148
g32
tp542
I0
s(g84
g295
tp543
I0
s(g111
g115
tp544
I0
s(g90
g32
tp545
I0
s(g59
g21
tp546
F0.54744525547445255
s(g5
g41
tp547
I0
s(g8
g34
tp548
I0
s(g87
g67
tp549
I0
s(g88
g17
tp550
I0
s(g80
g118
tp551
I0
s(g20
g96
tp552
I0
s(g87
g46
tp553
I0
s(g3
g222
tp554
I0
s(g214
g90
tp555
I0
s(g37
g148
tp556
I0
s(g80
g21
tp557
I0
s(g25
g77
tp558
I0
s(g167
g38
tp559
I0
s(g91
g236
tp560
I0
s(g281
g41
tp561
I0
s(g84
g62
tp562
I0
s(g87
g236
tp563
I0
s(g11
g15
tp564
I0
s(g80
g90
tp565
I0
s(g115
g28
tp566
I0
s(g124
g59
tp567
I0
s(g57
g115
tp568
I0
s(g142
g12
tp569
I0
s(g51
g37
tp570
I0
s(g25
g161
tp571
I0
s(g222
g20
tp572
I0
s(g40
g59
tp573
I0
s(g28
g25
tp574
I0
s(g214
g115
tp575
I0
s(g90
g139
tp576
I0
s(g34
g34
tp577
F0.83387358184764993
s(g114
g31
tp578
I0
s(g35
g158
tp579
I0
s(g72
g234
tp580
I0
s(g102
g88
tp581
I0
s(g142
g136
tp582
I0
s(g11
g6
tp583
I0
s(g105
g51
tp584
I0
s(g17
g102
tp585
I0
s(g11
g80
tp586
I0
s(g115
g5
tp587
I0
s(g122
g133
tp588
I0
s(g136
g122
tp589
I0
s(g148
g133
tp590
I0
s(g65
g71
tp591
I0
s(g38
g57
tp592
I0
s(g222
g3
tp593
I0
s(g14
g71
tp594
I0
s(g6
g102
tp595
I0
s(g142
g69
tp596
I0
s(g11
g87
tp597
I0
s(g25
g29
tp598
I0
s(g25
g34
tp599
I0
s(g31
g31
tp600
F0.73162939297124596
s(g69
g65
tp601
I0
s(g61
g100
tp602
I0
s(g158
g107
tp603
I0
s(g18
g80
tp604
I0
s(g136
g115
tp605
I0
s(g23
g173
tp606
I0
s(g49
g90
tp607
I0
s(g57
g80
tp608
I0
s(g31
g178
tp609
I0
s(g2
g43
tp610
I0
s(g25
g96
tp611
I0
s(g146
g72
tp612
I0
s(g94
g61
tp613
I0
s(g142
g107
tp614
I0
s(g90
g14
tp615
I0
s(g115
g158
tp616
I0
s(g80
g145
tp617
I0
s(g190
g129
tp618
I0
s(g281
g62
tp619
I0
s(g148
g53
tp620
I0
s(g129
g142
tp621
I0
s(g153
g148
tp622
I0
s(g3
g17
tp623
I0
s(g57
g62
tp624
I0
s(g59
g43
tp625
I0
s(g31
g100
tp626
I0
s(g2
g87
tp627
I0
s(g35
g14
tp628
I0
s(g111
g77
tp629
I0
s(g72
g236
tp630
I0
s(g234
g14
tp631
I0
s(g214
g114
tp632
I0
s(g173
g41
tp633
I0
s(g114
g100
tp634
I0
s(g107
g38
tp635
I0
s(g129
g8
tp636
I0
s(g214
g80
tp637
I0
s(g46
g45
tp638
I0
s(g102
g53
tp639
I0
s(g115
g272
tp640
I0
s(g21
g17
tp641
I0
s(g190
g136
tp642
I0
s(g100
g77
tp643
I0
s(g61
g114
tp644
I0
s(g14
g2
tp645
I0
s(g34
g142
tp646
I0
s(g17
g139
tp647
I0
s(g133
g148
tp648
I0
s(g12
g56
tp649
I0
s(g41
g142
tp650
I0
s(g18
g102
tp651
I0
s(g31
g46
tp652
I0
s(g94
g214
tp653
I0
s(g107
g34
tp654
I0
s(g105
g88
tp655
I0
s(g46
g100
tp656
I0
s(g6
g139
tp657
I0
s(g139
g6
tp658
F0.8390438247011951
s(g14
g45
tp659
I0
s(g9
g107
tp660
I0
s(g59
g38
tp661
I0
s(g222
g190
tp662
I0
s(g78
g11
tp663
I0
s(g107
g74
tp664
I0
s(g9
g46
tp665
I0
s(g14
g51
tp666
I0
s(g45
g94
tp667
I0
s(g77
g3
tp668
I0
s(g35
g6
tp669
I0
s(g49
g80
tp670
I0
s(g62
g6
tp671
I0
s(g12
g167
tp672
I0
s(g8
g12
tp673
I0
s(g136
g80
tp674
I0
s(g53
g122
tp675
I0
s(g32
g110
tp676
I0
s(g62
g8
tp677
I0
s(g139
g15
tp678
I0
s(g21
g281
tp679
I0
s(g124
g272
tp680
I0
s(g35
g96
tp681
I0
s(g40
g111
tp682
I0
s(g214
g142
tp683
I0
s(g31
g28
tp684
I0
s(g38
g153
tp685
I0
s(g74
g222
tp686
I0
s(g49
g3
tp687
I0
s(g5
g72
tp688
I0
s(g124
g77
tp689
I0
s(g29
g84
tp690
I0
s(g91
g28
tp691
I0
s(g17
g67
tp692
F0.58571428571428574
s(g9
g17
tp693
I0
s(g35
g295
tp694
I0
s(g164
g178
tp695
I0
s(g6
g38
tp696
I0
s(g15
g295
tp697
I0
s(g71
g9
tp698
I0
s(g17
g53
tp699
I0
s(g43
g164
tp700
I0
s(g74
g62
tp701
I0
s(g41
g41
tp702
F0.48795180722891568
s(g25
g222
tp703
I0
s(g87
g91
tp704
I0
s(g78
g56
tp705
I0
s(g164
g158
tp706
I0
s(g133
g124
tp707
I0
s(g21
g96
tp708
I0
s(g65
g90
tp709
I0
s(g2
g178
tp710
I0
s(g31
g51
tp711
I0
s(g2
g142
tp712
I0
s(g173
g122
tp713
I0
s(g51
g146
tp714
I0
s(g281
g111
tp715
I0
s(g5
g118
tp716
I0
s(g94
g122
tp717
F0.25588235294117645
s(g78
g32
tp718
I0
s(g146
g74
tp719
I0
s(g91
g111
tp720
I0
s(g281
g3
tp721
I0
s(g32
g96
tp722
I0
s(g71
g40
tp723
I0
s(g110
g25
tp724
I0
s(g46
g53
tp725
I0
s(g281
g295
tp726
I0
s(g40
g236
tp727
I0
s(g18
g17
tp728
I0
s(g34
g72
tp729
I0
s(g38
g15
tp730
I0
s(g167
g102
tp731
I0
s(g178
g25
tp732
I0
s(g88
g91
tp733
I0
s(g67
g80
tp734
I0
s(g17
g145
tp735
I0
s(g272
g158
tp736
I0
s(g37
g164
tp737
I0
s(g49
g56
tp738
I0
s(g133
g133
tp739
F0.57954545454545459
s(g158
g23
tp740
I0
s(g29
g25
tp741
I0
s(g23
g17
tp742
I0
s(g34
g2
tp743
I0
s(g11
g14
tp744
I0
s(g295
g234
tp745
I0
s(g146
g158
tp746
I0
s(g161
g173
tp747
I0
s(g32
g65
tp748
I0
s(g61
g295
tp749
I0
s(g105
g102
tp750
I0
s(g15
g105
tp751
I0
s(g56
g111
tp752
I0
s(g222
g12
tp753
I0
s(g35
g72
tp754
I0
s(g46
g91
tp755
I0
s(g153
g20
tp756
I0
s(g45
g51
tp757
I0
s(g49
g114
tp758
I0
s(g90
g236
tp759
I0
s(g6
g29
tp760
I0
s(g15
g6
tp761
I0
s(g53
g148
tp762
I0
s(g40
g49
tp763
I0
s(g214
g139
tp764
I0
s(g222
g80
tp765
I0
s(g136
g15
tp766
I0
s(g74
g9
tp767
I0
s(g87
g110
tp768
I0
s(g9
g124
tp769
I0
s(g12
g49
tp770
I0
s(g12
g74
tp771
I0
s(g161
g53
tp772
I0
s(g11
g29
tp773
I0
s(g139
g49
tp774
I0
s(g8
g43
tp775
I0
s(g11
g88
tp776
I0
s(g82
g272
tp777
I0
s(g28
g15
tp778
I0
s(g178
g59
tp779
I0
s(g164
g67
tp780
I0
s(g61
g8
tp781
I0
s(g111
g57
tp782
I0
s(g295
g124
tp783
I0
s(g94
g136
tp784
I0
s(g234
g173
tp785
I0
s(g80
g15
tp786
I0
s(g133
g28
tp787
I0
s(g59
g29
tp788
I0
s(g145
g190
tp789
I0
s(g122
g161
tp790
I0
s(g148
g105
tp791
I0
s(g71
g87
tp792
I0
s(g53
g142
tp793
I0
s(g139
g34
tp794
I0
s(g190
g56
tp795
I0
s(g164
g71
tp796
I0
s(g110
g142
tp797
I0
s(g164
g129
tp798
I0
s(g178
g161
tp799
I0
s(g173
g87
tp800
I0
s(g82
g26
tp801
I0
s(g56
g136
tp802
I0
s(g5
g164
tp803
I0
s(g28
g110
tp804
I0
s(g88
g148
tp805
I0
s(g29
g110
tp806
I0
s(g41
g122
tp807
I0
s(g29
g67
tp808
I0
s(g111
g272
tp809
I0
s(g148
g51
tp810
I0
s(g90
g72
tp811
I0
s(g2
g102
tp812
I0
s(g62
g167
tp813
I0
s(g190
g139
tp814
I0
s(g272
g94
tp815
I0
s(g178
g53
tp816
I0
s(g14
g115
tp817
I0
s(g153
g122
tp818
I0
s(g153
g72
tp819
I0
s(g161
g25
tp820
I0
s(g80
g32
tp821
I0
s(g56
g105
tp822
I0
s(g65
g80
tp823
I0
s(g38
g41
tp824
I0
s(g46
g122
tp825
I0
s(g118
g90
tp826
I0
s(g5
g129
tp827
I0
s(g110
g31
tp828
I0
s(g26
g26
tp829
F0.67625899280575541
s(g91
g49
tp830
I0
s(g88
g96
tp831
I0
s(g118
g56
tp832
I0
s(g153
g111
tp833
I0
s(g53
g49
tp834
I0
s(g94
g111
tp835
I0
s(g158
g72
tp836
I0
s(g67
g14
tp837
I0
s(g222
g87
tp838
I0
s(g69
g105
tp839
I0
s(g12
g142
tp840
I0
s(g21
g234
tp841
I0
s(g49
g2
tp842
I0
s(g110
g90
tp843
I0
s(g115
g136
tp844
I0
s(g21
g102
tp845
I0
s(g25
g62
tp846
I0
s(g12
g57
tp847
I0
s(g236
g110
tp848
I0
s(g158
g37
tp849
I0
s(g67
g3
tp850
I0
s(g57
g38
tp851
I0
s(g40
g148
tp852
I0
s(g167
g8
tp853
I0
s(g69
g124
tp854
I0
s(g61
g43
tp855
I0
s(g45
g80
tp856
I0
s(g5
g2
tp857
I0
s(g272
g12
tp858
I0
s(g62
g234
tp859
I0
s(g62
g88
tp860
I0
s(g17
g110
tp861
I0
s(g15
g17
tp862
I0
s(g105
g34
tp863
I0
s(g15
g69
tp864
I0
s(g65
g32
tp865
I0
s(g80
g190
tp866
I0
s(g136
g51
tp867
I0
s(g146
g41
tp868
I0
s(g281
g53
tp869
F0.48022598870056499
s(g12
g295
tp870
I0
s(g41
g53
tp871
I0
s(g5
g45
tp872
I0
s(g222
g34
tp873
I0
s(g222
g107
tp874
I0
s(g28
g18
tp875
I0
s(g236
g114
tp876
I0
s(g272
g139
tp877
I0
s(g61
g84
tp878
I0
s(g3
g145
tp879
I0
s(g100
g148
tp880
I0
s(g90
g43
tp881
I0
s(g40
g28
tp882
I0
s(g14
g139
tp883
I0
s(g72
g59
tp884
I0
s(g96
g77
tp885
I0
s(g214
g94
tp886
I0
s(g80
g153
tp887
I0
s(g71
g145
tp888
I0
s(g105
g26
tp889
I0
s(g139
g17
tp890
I0
s(g100
g45
tp891
I0
s(g234
g110
tp892
I0
s(g61
g118
tp893
I0
s(g69
g102
tp894
I0
s(g26
g49
tp895
I0
s(g115
g114
tp896
I0
s(g9
g38
tp897
I0
s(g21
g236
tp898
I0
s(g82
g25
tp899
I0
s(g96
g61
tp900
I0
s(g272
g82
tp901
I0
s(g102
g59
tp902
I0
s(g11
g167
tp903
I0
s(g67
g49
tp904
I0
s(g190
g41
tp905
I0
s(g142
g38
tp906
I0
s(g43
g94
tp907
I0
s(g15
g102
tp908
I0
s(g158
g20
tp909
I0
s(g56
g40
tp910
I0
s(g88
g87
tp911
I0
s(g59
g158
tp912
I0
s(g62
g40
tp913
I0
s(g43
g146
tp914
I0
s(g62
g236
tp915
I0
s(g12
g272
tp916
I0
s(g12
g6
tp917
I0
s(g45
g32
tp918
I0
s(g65
g84
tp919
I0
s(g124
g178
tp920
I0
s(g129
g146
tp921
I0
s(g148
g21
tp922
I0
s(g74
g12
tp923
I0
s(g31
g26
tp924
I0
s(g110
g88
tp925
I0
s(g111
g234
tp926
I0
s(g53
g91
tp927
I0
s(g32
g32
tp928
F0.42446043165467628
s(g295
g20
tp929
I0
s(g272
g17
tp930
I0
s(g14
g62
tp931
I0
s(g77
g82
tp932
I0
s(g46
g25
tp933
I0
s(g25
g148
tp934
I0
s(g20
g45
tp935
I0
s(g23
g94
tp936
I0
s(g34
g111
tp937
I0
s(g87
g90
tp938
I0
s(g41
g43
tp939
I0
s(g129
g107
tp940
I0
s(g281
g90
tp941
I0
s(g142
g167
tp942
I0
s(g34
g46
tp943
I0
s(g82
g124
tp944
I0
s(g74
g69
tp945
I0
s(g139
g51
tp946
I0
s(g110
g18
tp947
I0
s(g173
g111
tp948
I0
s(g69
g67
tp949
I0
s(g77
g164
tp950
I0
s(g114
g133
tp951
I0
s(g41
g12
tp952
I0
s(g145
g17
tp953
I0
s(g158
g56
tp954
I0
s(g158
g31
tp955
I0
s(g142
g62
tp956
I0
s(g114
g6
tp957
I0
s(g12
g88
tp958
I0
s(g96
g49
tp959
I0
s(g32
g40
tp960
I0
s(g51
g15
tp961
I0
s(g59
g91
tp962
I0
s(g148
g49
tp963
I0
s(g78
g57
tp964
I0
s(g281
g115
tp965
I0
s(g57
g139
tp966
I0
s(g9
g49
tp967
I0
s(g178
g69
tp968
I0
s(g295
g26
tp969
I0
s(g23
g32
tp970
I0
s(g71
g6
tp971
I0
s(g136
g74
tp972
F0.98799313893653518
s(g164
g45
tp973
I0
s(g56
g21
tp974
I0
s(g148
g178
tp975
I0
s(g23
g84
tp976
I0
s(g145
g145
tp977
F0.52513966480446927
s(g49
g5
tp978
I0
s(g78
g20
tp979
I0
s(g84
g90
tp980
I0
s(g35
g87
tp981
I0
s(g25
g88
tp982
I0
s(g71
g59
tp983
I0
s(g115
g214
tp984
I0
s(g115
g20
tp985
I0
s(g100
g129
tp986
I0
s(g272
g37
tp987
I0
s(g173
g234
tp988
I0
s(g49
g167
tp989
I0
s(g5
g91
tp990
I0
s(g84
g102
tp991
I0
s(g37
g91
tp992
I0
s(g190
g17
tp993
I0
s(g84
g38
tp994
I0
s(g71
g26
tp995
I0
s(g32
g115
tp996
I0
s(g82
g84
tp997
F0.21763085399449036
s(g129
g17
tp998
I0
s(g72
g18
tp999
I0
s(g67
g118
tp1000
I0
s(g51
g69
tp1001
I0
s(g114
g65
tp1002
I0
s(g23
g65
tp1003
I0
s(g9
g3
tp1004
I0
s(g20
g41
tp1005
I0
s(g74
g178
tp1006
I0
s(g11
g46
tp1007
I0
s(g25
g281
tp1008
I0
s(g214
g43
tp1009
I0
s(g190
g34
tp1010
I0
s(g21
g3
tp1011
I0
s(g37
g111
tp1012
I0
s(g111
g14
tp1013
I0
s(g51
g142
tp1014
I0
s(g167
g110
tp1015
I0
s(g167
g18
tp1016
I0
s(g102
g133
tp1017
I0
s(g281
g78
tp1018
I0
s(g31
g17
tp1019
I0
s(g281
g236
tp1020
I0
s(g161
g62
tp1021
I0
s(g29
g53
tp1022
I0
s(g65
g28
tp1023
I0
s(g37
g190
tp1024
I0
s(g51
g67
tp1025
I0
s(g26
g62
tp1026
I0
s(g9
g122
tp1027
I0
s(g153
g14
tp1028
I0
s(g82
g234
tp1029
I0
s(g129
g84
tp1030
I0
s(g133
g8
tp1031
I0
s(g77
g61
tp1032
I0
s(g80
g2
tp1033
I0
s(g139
g153
tp1034
I0
s(g214
g190
tp1035
I0
s(g107
g272
tp1036
I0
s(g115
g11
tp1037
I0
s(g77
g35
tp1038
I0
s(g51
g236
tp1039
I0
s(g72
g43
tp1040
I0
s(g133
g178
tp1041
I0
s(g118
g142
tp1042
I0
s(g133
g142
tp1043
I0
s(g145
g153
tp1044
I0
s(g146
g28
tp1045
I0
s(g65
g145
tp1046
I0
s(g173
g236
tp1047
I0
s(g80
g236
tp1048
I0
s(g21
g100
tp1049
I0
s(g139
g96
tp1050
I0
s(g17
g100
tp1051
I0
s(g148
g94
tp1052
I0
s(g94
g5
tp1053
I0
s(g90
g80
tp1054
I0
s(g115
g91
tp1055
I0
s(g133
g17
tp1056
I0
s(g111
g8
tp1057
I0
s(g100
g5
tp1058
I0
s(g133
g25
tp1059
I0
s(g21
g114
tp1060
I0
s(g11
g31
tp1061
I0
s(g32
g114
tp1062
I0
s(g148
g142
tp1063
I0
s(g136
g100
tp1064
I0
s(g118
g236
tp1065
I0
s(g69
g18
tp1066
I0
s(g145
g82
tp1067
I0
s(g105
g153
tp1068
I0
s(g56
g41
tp1069
I0
s(g295
g9
tp1070
I0
s(g82
g111
tp1071
I0
s(g43
g102
tp1072
I0
s(g43
g100
tp1073
I0
s(g91
g158
tp1074
I0
s(g164
g46
tp1075
I0
s(g71
g57
tp1076
I0
s(g88
g71
tp1077
I0
s(g6
g32
tp1078
I0
s(g110
g71
tp1079
I0
s(g23
g110
tp1080
I0
s(g38
g164
tp1081
I0
s(g82
g40
tp1082
I0
s(g77
g118
tp1083
I0
s(g80
g136
tp1084
I0
s(g281
g178
tp1085
I0
s(g41
g74
tp1086
I0
s(g43
g3
tp1087
I0
s(g53
g46
tp1088
I0
s(g158
g161
tp1089
I0
s(g18
g139
tp1090
I0
s(g34
g114
tp1091
I0
s(g72
g153
tp1092
I0
s(g43
g145
tp1093
I0
s(g281
g164
tp1094
I0
s(g59
g234
tp1095
I0
s(g114
g72
tp1096
I0
s(g100
g35
tp1097
I0
s(g115
g100
tp1098
I0
s(g61
g110
tp1099
I0
s(g35
g69
tp1100
I0
s(g71
g8
tp1101
I0
s(g59
g59
tp1102
F0.99124752013070372
s(g178
g26
tp1103
I0
s(g31
g15
tp1104
I0
s(g153
g234
tp1105
I0
s(g136
g62
tp1106
I0
s(g17
g40
tp1107
I0
s(g136
g105
tp1108
I0
s(g2
g46
tp1109
I0
s(g59
g28
tp1110
I0
s(g21
g107
tp1111
I0
s(g236
g5
tp1112
I0
s(g84
g41
tp1113
I0
s(g90
g69
tp1114
I0
s(g49
g29
tp1115
I0
s(g25
g102
tp1116
I0
s(g142
g59
tp1117
I0
s(g105
g158
tp1118
I0
s(g142
g124
tp1119
I0
s(g62
g124
tp1120
I0
s(g59
g23
tp1121
I0
s(g214
g164
tp1122
I0
s(g28
g164
tp1123
I0
s(g23
g29
tp1124
I0
s(g136
g111
tp1125
I0
s(g26
g111
tp1126
I0
s(g59
g84
tp1127
I0
s(g59
g110
tp1128
I0
s(g2
g28
tp1129
I0
s(g74
g84
tp1130
I0
s(g67
g129
tp1131
I0
s(g11
g136
tp1132
I0
s(g9
g115
tp1133
I0
s(g53
g124
tp1134
I0
s(g9
g139
tp1135
I0
s(g72
g11
tp1136
I0
s(g88
g49
tp1137
I0
s(g178
g148
tp1138
I0
s(g26
g153
tp1139
I0
s(g17
g114
tp1140
I0
s(g234
g78
tp1141
I0
s(g158
g65
tp1142
I0
s(g91
g69
tp1143
I0
s(g77
g12
tp1144
I0
s(g14
g59
tp1145
I0
s(g105
g21
tp1146
I0
s(g26
g100
tp1147
I0
s(g236
g15
tp1148
I0
s(g23
g53
tp1149
I0
s(g234
g59
tp1150
I0
s(g214
g148
tp1151
I0
s(g46
g146
tp1152
I0
s(g6
g114
tp1153
I0
s(g148
g148
tp1154
F0.99452392360873443
s(g2
g59
tp1155
I0
s(g41
g31
tp1156
I0
s(g139
g37
tp1157
I0
s(g222
g62
tp1158
I0
s(g161
g281
tp1159
I0
s(g133
g102
tp1160
I0
s(g14
g6
tp1161
I0
s(g29
g17
tp1162
I0
s(g88
g32
tp1163
I0
s(g234
g139
tp1164
I0
s(g45
g87
tp1165
I0
s(g18
g272
tp1166
I0
s(g32
g12
tp1167
I0
s(g142
g25
tp1168
I0
s(g67
g236
tp1169
I0
s(g102
g51
tp1170
I0
s(g236
g71
tp1171
I0
s(g107
g100
tp1172
I0
s(g88
g59
tp1173
I0
s(g90
g190
tp1174
I0
s(g71
g12
tp1175
I0
s(g111
g18
tp1176
I0
s(g26
g37
tp1177
I0
s(g53
g90
tp1178
I0
s(g69
g164
tp1179
I0
s(g190
g161
tp1180
I0
s(g35
g71
tp1181
I0
s(g5
g148
tp1182
I0
s(g69
g38
tp1183
I0
s(g190
g23
tp1184
I0
s(g105
g25
tp1185
I0
s(g107
g111
tp1186
I0
s(g148
g236
tp1187
F0.47904191616766467
s(g164
g115
tp1188
I0
s(g8
g71
tp1189
I0
s(g15
g40
tp1190
I0
s(g115
g153
tp1191
I0
s(g78
g45
tp1192
I0
s(g21
g115
tp1193
I0
s(g38
g18
tp1194
I0
s(g38
g25
tp1195
I0
s(g41
g173
tp1196
I0
s(g107
g178
tp1197
I0
s(g65
g17
tp1198
I0
s(g158
g84
tp1199
I0
s(g29
g272
tp1200
I0
s(g90
g90
tp1201
F0.99340959018256192
s(g35
g173
tp1202
I0
s(g100
g84
tp1203
I0
s(g32
g234
tp1204
I0
s(g84
g88
tp1205
I0
s(g25
g94
tp1206
I0
s(g61
g190
tp1207
I0
s(g295
g77
tp1208
I0
s(g8
g61
tp1209
I0
s(g57
g11
tp1210
I0
s(g158
g71
tp1211
I0
s(g25
g82
tp1212
I0
s(g46
g26
tp1213
I0
s(g82
g129
tp1214
I0
s(g88
g77
tp1215
I0
s(g214
g46
tp1216
I0
s(g139
g136
tp1217
I0
s(g18
g236
tp1218
I0
s(g139
g78
tp1219
I0
s(g161
g129
tp1220
I0
s(g173
g295
tp1221
I0
s(g40
g96
tp1222
I0
s(g46
g40
tp1223
I0
s(g57
g20
tp1224
I0
s(g190
g100
tp1225
I0
s(g91
g29
tp1226
I0
s(g34
g110
tp1227
I0
s(g37
g90
tp1228
I0
s(g15
g100
tp1229
F0.47368421052631576
s(g43
g110
tp1230
I0
s(g15
g37
tp1231
I0
s(g122
g8
tp1232
I0
s(g14
g32
tp1233
I0
s(g222
g133
tp1234
I0
s(g69
g122
tp1235
I0
s(g87
g40
tp1236
I0
s(g178
g133
tp1237
I0
s(g161
g148
tp1238
I0
s(g8
g14
tp1239
I0
s(g234
g105
tp1240
I0
s(g90
g23
tp1241
I0
s(g49
g59
tp1242
I0
s(g40
g45
tp1243
I0
s(g122
g96
tp1244
I0
s(g94
g37
tp1245
I0
s(g12
g34
tp1246
I0
s(g51
g78
tp1247
I0
s(g15
g45
tp1248
I0
s(g9
g222
tp1249
I0
s(g18
g114
tp1250
I0
s(g124
g2
tp1251
I0
s(g94
g110
tp1252
I0
s(g14
g214
tp1253
I0
s(g32
g77
tp1254
I0
s(g158
g51
tp1255
I0
s(g122
g34
tp1256
I0
s(g12
g71
tp1257
I0
s(g77
g2
tp1258
I0
s(g12
g29
tp1259
I0
s(g96
g190
tp1260
I0
s(g110
g173
tp1261
I0
s(g45
g96
tp1262
I0
s(g295
g139
tp1263
I0
s(g110
g80
tp1264
I0
s(g91
g32
tp1265
I0
s(g62
g18
tp1266
I0
s(g272
g31
tp1267
I0
s(g6
g49
tp1268
I0
s(g12
g23
tp1269
I0
s(g82
g11
tp1270
I0
s(g41
g153
tp1271
I0
s(g40
g29
tp1272
I0
s(g234
g8
tp1273
I0
s(g167
g40
tp1274
I0
s(g38
g53
tp1275
I0
s(g72
g178
tp1276
I0
s(g57
g53
tp1277
I0
s(g31
g136
tp1278
I0
s(g153
g69
tp1279
I0
s(g45
g23
tp1280
I0
s(g72
g21
tp1281
I0
s(g34
g43
tp1282
I0
s(g37
g146
tp1283
I0
s(g281
g45
tp1284
I0
s(g234
g61
tp1285
I0
s(g62
g82
tp1286
I0
s(g49
g148
tp1287
I0
s(g35
g17
tp1288
I0
s(g59
g12
tp1289
I0
s(g87
g167
tp1290
I0
s(g41
g90
tp1291
I0
s(g11
g129
tp1292
I0
s(g124
g281
tp1293
I0
s(g80
g114
tp1294
I0
s(g87
g74
tp1295
I0
s(g145
g53
tp1296
I0
s(g18
g5
tp1297
I0
s(g11
g72
tp1298
I0
s(g100
g25
tp1299
I0
s(g32
g18
tp1300
I0
s(g110
g62
tp1301
I0
s(g167
g114
tp1302
I0
s(g59
g80
tp1303
I0
s(g40
g12
tp1304
I0
s(g158
g129
tp1305
I0
s(g34
g90
tp1306
I0
s(g214
g100
tp1307
I0
s(g77
g178
tp1308
F0.96005870176852637
s(g87
g214
tp1309
I0
s(g178
g62
tp1310
F0.77142857142857146
s(g8
g8
tp1311
F0.53846153846153844
s(g84
g139
tp1312
I0
s(g139
g9
tp1313
I0
s(g84
g124
tp1314
I0
s(g80
g164
tp1315
I0
s(g142
g15
tp1316
I0
s(g161
g29
tp1317
I0
s(g148
g281
tp1318
I0
s(g5
g295
tp1319
I0
s(g3
g146
tp1320
I0
s(g78
g29
tp1321
I0
s(g14
g272
tp1322
I0
s(g111
g28
tp1323
I0
s(g94
g158
tp1324
I0
s(g167
g82
tp1325
I0
s(g67
g100
tp1326
I0
s(g173
g158
tp1327
I0
s(g84
g122
tp1328
I0
s(g139
g142
tp1329
I0
s(g49
g111
tp1330
I0
s(g28
g214
tp1331
I0
s(g82
g122
tp1332
I0
s(g56
g133
tp1333
I0
s(g71
g15
tp1334
I0
s(g153
g295
tp1335
I0
s(g115
g78
tp1336
I0
s(g78
g5
tp1337
I0
s(g161
g115
tp1338
I0
s(g78
g34
tp1339
I0
s(g107
g61
tp1340
I0
s(g26
g2
tp1341
I0
s(g3
g15
tp1342
I0
s(g45
g21
tp1343
I0
s(g18
g77
tp1344
I0
s(g100
g90
tp1345
I0
s(g38
g146
tp1346
I0
s(g133
g20
tp1347
I0
s(g118
g20
tp1348
I0
s(g161
g190
tp1349
I0
s(g74
g34
tp1350
I0
s(g124
g25
tp1351
I0
s(g142
g43
tp1352
I0
s(g102
g118
tp1353
I0
s(g100
g29
tp1354
I0
s(g14
g295
tp1355
I0
s(g26
g142
tp1356
I0
s(g161
g105
tp1357
I0
s(g59
g94
tp1358
I0
s(g61
g35
tp1359
I0
s(g145
g77
tp1360
I0
s(g59
g61
tp1361
I0
s(g5
g49
tp1362
I0
s(g9
g69
tp1363
I0
s(g78
g158
tp1364
I0
s(g96
g6
tp1365
I0
s(g17
g234
tp1366
I0
s(g72
g222
tp1367
I0
s(g173
g3
tp1368
I0
s(g25
g9
tp1369
I0
s(g146
g82
tp1370
I0
s(g57
g43
tp1371
I0
s(g18
g56
tp1372
I0
s(g53
g129
tp1373
I0
s(g96
g51
tp1374
I0
s(g136
g84
tp1375
I0
s(g145
g161
tp1376
I0
s(g59
g77
tp1377
I0
s(g222
g72
tp1378
I0
s(g234
g18
tp1379
I0
s(g6
g234
tp1380
I0
s(g148
g59
tp1381
I0
s(g72
g41
tp1382
I0
s(g90
g74
tp1383
I0
s(g94
g28
tp1384
I0
s(g124
g3
tp1385
I0
s(g62
g129
tp1386
I0
s(g45
g178
tp1387
I0
s(g100
g56
tp1388
I0
s(g145
g281
tp1389
I0
s(g59
g87
tp1390
I0
s(g37
g34
tp1391
I0
s(g118
g65
tp1392
I0
s(g136
g28
tp1393
I0
s(g164
g118
tp1394
I0
s(g107
g43
tp1395
I0
s(g236
g139
tp1396
I0
s(g29
g2
tp1397
I0
s(g96
g164
tp1398
I0
s(g214
g222
tp1399
I0
s(g53
g61
tp1400
I0
s(g72
g35
tp1401
I0
s(g17
g84
tp1402
I0
s(g46
g9
tp1403
I0
s(g12
g32
tp1404
I0
s(g37
g88
tp1405
I0
s(g8
g173
tp1406
I0
s(g6
g23
tp1407
I0
s(g167
g20
tp1408
I0
s(g295
g122
tp1409
I0
s(g110
g3
tp1410
I0
s(g6
g84
tp1411
I0
s(g34
g28
tp1412
I0
s(g34
g18
tp1413
I0
s(g136
g38
tp1414
I0
s(g96
g110
tp1415
I0
s(g178
g153
tp1416
I0
s(g136
g2
tp1417
I0
s(g51
g65
tp1418
I0
s(g118
g72
tp1419
I0
s(g110
g100
tp1420
I0
s(g59
g34
tp1421
I0
s(g111
g61
tp1422
I0
s(g111
g164
tp1423
I0
s(g272
g118
tp1424
I0
s(g6
g118
tp1425
I0
s(g178
g84
tp1426
F0.4560260586319218
s(g161
g139
tp1427
I0
s(g234
g3
tp1428
I0
s(g94
g2
tp1429
I0
s(g164
g78
tp1430
I0
s(g96
g17
tp1431
I0
s(g114
g161
tp1432
I0
s(g77
g145
tp1433
I0
s(g53
g8
tp1434
I0
s(g105
g69
tp1435
I0
s(g15
g142
tp1436
I0
s(g153
g9
tp1437
I0
s(g2
g51
tp1438
I0
s(g136
g110
tp1439
I0
s(g102
g167
tp1440
I0
s(g129
g25
tp1441
I0
s(g62
g11
tp1442
I0
s(g14
g281
tp1443
I0
s(g178
g28
tp1444
I0
s(g59
g9
tp1445
I0
s(g87
g31
tp1446
I0
s(g114
g122
tp1447
I0
s(g5
g111
tp1448
I0
s(g190
g21
tp1449
I0
s(g8
g111
tp1450
I0
s(g69
g8
tp1451
I0
s(g26
g12
tp1452
I0
s(g29
g23
tp1453
I0
s(g214
g56
tp1454
I0
s(g49
g173
tp1455
I0
s(g14
g9
tp1456
I0
s(g115
g87
tp1457
I0
s(g102
g100
tp1458
I0
s(g178
g234
tp1459
I0
s(g124
g20
tp1460
I0
s(g272
g49
tp1461
I0
s(g178
g21
tp1462
I0
s(g34
g82
tp1463
I0
s(g107
g71
tp1464
I0
s(g21
g167
tp1465
I0
s(g29
g105
tp1466
I0
s(g236
g90
tp1467
I0
s(g26
g118
tp1468
I0
s(g14
g18
tp1469
I0
s(g67
g110
tp1470
I0
s(g115
g21
tp1471
I0
s(g84
g25
tp1472
I0
s(g111
g45
tp1473
I0
s(g25
g114
tp1474
I0
s(g87
g102
tp1475
I0
s(g153
g124
tp1476
I0
s(g173
g26
tp1477
I0
s(g234
g161
tp1478
I0
s(g84
g57
tp1479
I0
s(g71
g133
tp1480
I0
s(g49
g102
tp1481
I0
s(g145
g214
tp1482
I0
s(g214
g49
tp1483
I0
s(g167
g77
tp1484
I0
s(g35
g59
tp1485
F0.99304449844967746
s(g78
g164
tp1486
I0
s(g5
g142
tp1487
I0
s(g38
g133
tp1488
I0
s(g69
g29
tp1489
I0
s(g65
g65
tp1490
F0.50819672131147542
s(g272
g72
tp1491
I0
s(g29
g5
tp1492
I0
s(g94
g77
tp1493
I0
s(g65
g102
tp1494
I0
s(g190
g90
tp1495
I0
s(g20
g17
tp1496
I0
s(g94
g11
tp1497
I0
s(g49
g15
tp1498
I0
s(g133
g59
tp1499
I0
s(g11
g115
tp1500
I0
s(g65
g122
tp1501
I0
s(g102
g84
tp1502
I0
s(g102
g281
tp1503
I0
s(g23
g14
tp1504
I0
s(g295
g129
tp1505
F0.015584415584415584
s(g107
g236
tp1506
I0
s(g124
g118
tp1507
I0
s(g100
g88
tp1508
I0
s(g142
g45
tp1509
I0
s(g118
g80
tp1510
I0
s(g72
g31
tp1511
I0
s(g102
g21
tp1512
I0
s(g105
g91
tp1513
I0
s(g15
g87
tp1514
I0
s(g107
g18
tp1515
I0
s(g164
g72
tp1516
I0
s(g161
g100
tp1517
I0
s(g122
g124
tp1518
I0
s(g136
g12
tp1519
I0
s(g65
g53
tp1520
I0
s(g46
g102
tp1521
I0
s(g21
g80
tp1522
I0
s(g146
g148
tp1523
I0
s(g49
g222
tp1524
I0
s(g78
g65
tp1525
I0
s(g167
g34
tp1526
I0
s(g100
g173
tp1527
I0
s(g90
g142
tp1528
I0
s(g102
g115
tp1529
I0
s(g5
g136
tp1530
I0
s(g122
g21
tp1531
I0
s(g114
g71
tp1532
I0
s(g115
g65
tp1533
I0
s(g25
g115
tp1534
I0
s(g45
g124
tp1535
I0
s(g80
g23
tp1536
I0
s(g12
g62
tp1537
I0
s(g57
g161
tp1538
I0
s(g23
g88
tp1539
I0
s(g110
g272
tp1540
I0
s(g15
g28
tp1541
I0
s(g129
g122
tp1542
I0
s(g148
g214
tp1543
I0
s(g88
g146
tp1544
I0
s(g6
g20
tp1545
I0
s(g111
g3
tp1546
I0
s(g146
g43
tp1547
I0
s(g102
g80
tp1548
I0
s(g114
g15
tp1549
I0
s(g158
g5
tp1550
I0
s(g6
g111
tp1551
I0
s(g17
g20
tp1552
I0
s(g34
g61
tp1553
I0
s(g105
g295
tp1554
I0
s(g234
g72
tp1555
I0
s(g61
g77
tp1556
I0
s(g107
g295
tp1557
I0
s(g65
g110
tp1558
I0
s(g46
g110
tp1559
I0
s(g122
g25
tp1560
F0.45966522396620951
s(g148
g87
tp1561
I0
s(g41
g26
tp1562
I0
s(g111
g139
tp1563
I0
s(g12
g51
tp1564
I0
s(g53
g18
tp1565
I0
s(g158
g62
tp1566
I0
s(g102
g67
tp1567
I0
s(g115
g67
tp1568
I0
s(g80
g295
tp1569
I0
s(g153
g133
tp1570
I0
s(g40
g51
tp1571
I0
s(g142
g114
tp1572
F0.54545454545454541
s(g142
g8
tp1573
I0
s(g57
g295
tp1574
I0
s(g115
g45
tp1575
I0
s(g173
g167
tp1576
I0
s(g111
g29
tp1577
I0
s(g136
g20
tp1578
I0
s(g69
g100
tp1579
I0
s(g56
g23
tp1580
I0
s(g139
g91
tp1581
I0
s(g9
g87
tp1582
I0
s(g51
g35
tp1583
I0
s(g11
g32
tp1584
I0
s(g31
g61
tp1585
I0
s(g28
g56
tp1586
I0
s(g59
g153
tp1587
I0
s(g190
g167
tp1588
I0
s(g71
g38
tp1589
I0
s(g15
g74
tp1590
I0
s(g77
g23
tp1591
I0
s(g62
g111
tp1592
I0
s(g9
g190
tp1593
I0
s(g59
g111
tp1594
I0
s(g133
g74
tp1595
I0
s(g91
g3
tp1596
I0
s(g57
g9
tp1597
I0
s(g74
g96
tp1598
I0
s(g59
g18
tp1599
I0
s(g14
g8
tp1600
I0
s(g14
g77
tp1601
I0
s(g12
g28
tp1602
I0
s(g72
g46
tp1603
I0
s(g158
g21
tp1604
I0
s(g20
g100
tp1605
I0
s(g214
g29
tp1606
I0
s(g129
g78
tp1607
I0
s(g35
g190
tp1608
I0
s(g14
g146
tp1609
I0
s(g62
g190
tp1610
I0
s(g23
g91
tp1611
I0
s(g46
g90
tp1612
I0
s(g146
g133
tp1613
I0
s(g114
g136
tp1614
I0
s(g102
g77
tp1615
I0
s(g84
g222
tp1616
I0
s(g17
g272
tp1617
I0
s(g122
g31
tp1618
I0
s(g164
g21
tp1619
I0
s(g161
g214
tp1620
I0
s(g115
g9
tp1621
I0
s(g88
g8
tp1622
I0
s(g78
g51
tp1623
I0
s(g21
g124
tp1624
I0
s(g87
g118
tp1625
I0
s(g21
g190
tp1626
I0
s(g153
g145
tp1627
I0
s(g90
g20
tp1628
I0
s(g110
g61
tp1629
I0
s(g53
g45
tp1630
I0
s(g158
g3
tp1631
I0
s(g142
g96
tp1632
I0
s(g281
g18
tp1633
I0
s(g295
g8
tp1634
I0
s(g129
g57
tp1635
I0
s(g122
g67
tp1636
I0
s(g107
g107
tp1637
F0.55392156862745101
s(g46
g2
tp1638
I0
s(g3
g295
tp1639
I0
s(g46
g43
tp1640
I0
s(g102
g25
tp1641
I0
s(g78
g88
tp1642
I0
s(g222
g28
tp1643
I0
s(g41
g17
tp1644
I0
s(g102
g71
tp1645
I0
s(g32
g3
tp1646
I0
s(g90
g28
tp1647
I0
s(g111
g74
tp1648
I0
s(g59
g236
tp1649
I0
s(g111
g148
tp1650
I0
s(g17
g2
tp1651
I0
s(g281
g38
tp1652
I0
s(g6
g46
tp1653
I0
s(g21
g173
tp1654
I0
s(g91
g84
tp1655
I0
s(g34
g77
tp1656
I0
s(g31
g14
tp1657
I0
s(g14
g96
tp1658
I0
s(g26
g105
tp1659
I0
s(g26
g102
tp1660
I0
s(g133
g167
tp1661
I0
s(g2
g57
tp1662
I0
s(g88
g43
tp1663
I0
s(g122
g20
tp1664
I0
s(g94
g51
tp1665
I0
s(g94
g114
tp1666
I0
s(g41
g69
tp1667
I0
s(g133
g77
tp1668
I0
s(g35
g164
tp1669
I0
s(g17
g34
tp1670
I0
s(g49
g234
tp1671
I0
s(g45
g56
tp1672
I0
s(g2
g164
tp1673
I0
s(g122
g74
tp1674
I0
s(g148
g78
tp1675
I0
s(g91
g53
tp1676
I0
s(g107
g5
tp1677
I0
s(g51
g17
tp1678
I0
s(g173
g133
tp1679
I0
s(g146
g62
tp1680
I0
s(g26
g110
tp1681
I0
s(g74
g142
tp1682
I0
s(g234
g100
tp1683
I0
s(g59
g62
tp1684
I0
s(g91
g133
tp1685
I0
s(g12
g124
tp1686
I0
s(g25
g146
tp1687
I0
s(g167
g74
tp1688
I0
s(g122
g56
tp1689
I0
s(g164
g100
tp1690
I0
s(g15
g38
tp1691
I0
s(g74
g110
tp1692
I0
s(g9
g18
tp1693
I0
s(g59
g161
tp1694
I0
s(g190
g71
tp1695
I0
s(g94
g96
tp1696
I0
s(g43
g38
tp1697
I0
s(g100
g8
tp1698
I0
s(g8
g148
tp1699
I0
s(g17
g190
tp1700
I0
s(g118
g136
tp1701
I0
s(g11
g82
tp1702
I0
s(g34
g67
tp1703
I0
s(g153
g164
tp1704
I0
s(g153
g6
tp1705
I0
s(g77
g69
tp1706
I0
s(g295
g35
tp1707
I0
s(g62
g38
tp1708
I0
s(g82
g45
tp1709
I0
s(g105
g37
tp1710
I0
s(g214
g136
tp1711
I0
s(g74
g38
tp1712
I0
s(g3
g236
tp1713
I0
s(g37
g62
tp1714
I0
s(g161
g234
tp1715
I0
s(g65
g234
tp1716
I0
s(g272
g100
tp1717
I0
s(g118
g105
tp1718
I0
s(g281
g72
tp1719
I0
s(g74
g234
tp1720
I0
s(g236
g32
tp1721
I0
s(g15
g20
tp1722
I0
s(g34
g49
tp1723
I0
s(g34
g69
tp1724
I0
s(g49
g236
tp1725
I0
s(g214
g51
tp1726
I0
s(g23
g161
tp1727
I0
s(g295
g272
tp1728
I0
s(g45
g139
tp1729
I0
s(g107
g91
tp1730
I0
s(g23
g153
tp1731
I0
s(g21
g148
tp1732
I0
s(g51
g51
tp1733
F0.72468722226020388
s(g72
g65
tp1734
I0
s(g118
g161
tp1735
I0
s(g26
g11
tp1736
I0
s(g102
g34
tp1737
I0
s(g31
g53
tp1738
I0
s(g139
g295
tp1739
I0
s(g100
g59
tp1740
I0
s(g40
g21
tp1741
I0
s(g59
g96
tp1742
I0
s(g80
g6
tp1743
I0
s(g145
g142
tp1744
I0
s(g105
g110
tp1745
I0
s(g31
g145
tp1746
I0
s(g178
g82
tp1747
I0
s(g133
g21
tp1748
F0.66900178620552775
s(g145
g78
tp1749
I0
s(g90
g51
tp1750
I0
s(g87
g129
tp1751
I0
s(g129
g49
tp1752
I0
s(g133
g26
tp1753
I0
s(g91
g145
tp1754
I0
s(g51
g153
tp1755
I0
s(g57
g94
tp1756
I0
s(g59
g295
tp1757
I0
s(g178
g56
tp1758
I0
s(g124
g5
tp1759
I0
s(g178
g281
tp1760
I0
s(g161
g236
tp1761
I0
s(g295
g114
tp1762
I0
s(g61
g164
tp1763
I0
s(g59
g133
tp1764
I0
s(g5
g102
tp1765
I0
s(g29
g78
tp1766
I0
s(g20
g65
tp1767
I0
s(g214
g124
tp1768
I0
s(g43
g148
tp1769
I0
s(g91
g100
tp1770
I0
s(g15
g57
tp1771
I0
s(g88
g114
tp1772
I0
s(g45
g59
tp1773
I0
s(g25
g17
tp1774
I0
s(g111
g43
tp1775
I0
s(g115
g53
tp1776
I0
s(g105
g136
tp1777
I0
s(g5
g3
tp1778
I0
s(g9
g28
tp1779
I0
s(g129
g5
tp1780
I0
s(g281
g21
tp1781
I0
s(g40
g133
tp1782
I0
s(g6
g145
tp1783
I0
s(g21
g20
tp1784
I0
s(g272
g11
tp1785
I0
s(g281
g118
tp1786
I0
s(g146
g111
tp1787
I0
s(g94
g139
tp1788
I0
s(g32
g72
tp1789
I0
s(g51
g71
tp1790
I0
s(g105
g114
tp1791
I0
s(g158
g25
tp1792
I0
s(g142
g272
tp1793
I0
s(g158
g53
tp1794
I0
s(g14
g43
tp1795
I0
s(g82
g87
tp1796
I0
s(g35
g40
tp1797
I0
s(g124
g29
tp1798
I0
s(g122
g167
tp1799
I0
s(g161
g49
tp1800
F0.58823529411764708
s(g67
g78
tp1801
I0
s(g234
g57
tp1802
I0
s(g87
g124
tp1803
I0
s(g14
g88
tp1804
I0
s(g102
g41
tp1805
I0
s(g11
g178
tp1806
I0
s(g29
g35
tp1807
I0
s(g190
g214
tp1808
I0
s(g29
g34
tp1809
I0
s(g77
g100
tp1810
I0
s(g34
g105
tp1811
I0
s(g32
g94
tp1812
I0
s(g222
g100
tp1813
I0
s(g14
g136
tp1814
I0
s(g222
g65
tp1815
I0
s(g295
g96
tp1816
I0
s(g18
g28
tp1817
I0
s(g96
g114
tp1818
I0
s(g3
g37
tp1819
I0
s(g272
g281
tp1820
I0
s(g29
g40
tp1821
I0
s(g281
g96
tp1822
I0
s(g105
g65
tp1823
I0
s(g136
g23
tp1824
I0
s(g31
g80
tp1825
I0
s(g20
g43
tp1826
I0
s(g142
g234
tp1827
I0
s(g90
g61
tp1828
I0
s(g94
g14
tp1829
I0
s(g124
g28
tp1830
I0
s(g18
g84
tp1831
I0
s(g34
g15
tp1832
I0
s(g14
g14
tp1833
F0.51955307262569828
s(g164
g74
tp1834
I0
s(g148
g18
tp1835
I0
s(g56
g43
tp1836
I0
s(g3
g62
tp1837
I0
s(g146
g23
tp1838
I0
s(g15
g91
tp1839
I0
s(g74
g78
tp1840
I0
s(g72
g100
tp1841
I0
s(g105
g82
tp1842
I0
s(g67
g84
tp1843
I0
s(g37
g11
tp1844
I0
s(g87
g139
tp1845
I0
s(g67
g40
tp1846
I0
s(g71
g35
tp1847
I0
s(g8
g164
tp1848
I0
s(g82
g17
tp1849
I0
s(g78
g25
tp1850
I0
s(g61
g6
tp1851
I0
s(g61
g272
tp1852
I0
s(g9
g72
tp1853
I0
s(g59
g148
tp1854
I0
s(g5
g90
tp1855
I0
s(g37
g57
tp1856
I0
s(g46
g111
tp1857
I0
s(g34
g222
tp1858
I0
s(g190
g102
tp1859
I0
s(g56
g173
tp1860
I0
s(g145
g124
tp1861
I0
s(g167
g122
tp1862
I0
s(g32
g37
tp1863
I0
s(g88
g2
tp1864
I0
s(g53
g6
tp1865
I0
s(g272
g74
tp1866
I0
s(g28
g6
tp1867
I0
s(g164
g69
tp1868
I0
s(g38
g51
tp1869
I0
s(g146
g153
tp1870
I0
s(g178
g23
tp1871
I0
s(g84
g12
tp1872
I0
s(g31
g281
tp1873
I0
s(g18
g9
tp1874
I0
s(g164
g146
tp1875
I0
s(g234
g91
tp1876
I0
s(g12
g53
tp1877
I0
s(g57
g88
tp1878
I0
s(g105
g2
tp1879
I0
s(g15
g65
tp1880
I0
s(g190
g190
tp1881
F0.97623762376237611
s(g34
g38
tp1882
I0
s(g51
g145
tp1883
I0
s(g56
g37
tp1884
I0
s(g102
g57
tp1885
I0
s(g23
g9
tp1886
I0
s(g9
g43
tp1887
I0
s(g272
g67
tp1888
I0
s(g61
g2
tp1889
I0
s(g118
g77
tp1890
I0
s(g12
g84
tp1891
I0
s(g91
g107
tp1892
I0
s(g153
g88
tp1893
I0
s(g96
g146
tp1894
I0
s(g45
g62
tp1895
I0
s(g74
g57
tp1896
I0
s(g62
g31
tp1897
I0
s(g295
g71
tp1898
I0
s(g118
g29
tp1899
I0
s(g161
g114
tp1900
I0
s(g129
g272
tp1901
I0
s(g18
g32
tp1902
I0
s(g87
g65
tp1903
I0
s(g38
g78
tp1904
I0
s(g153
g105
tp1905
I0
s(g37
g15
tp1906
I0
s(g167
g69
tp1907
I0
s(g53
g295
tp1908
I0
s(g61
g5
tp1909
I0
s(g32
g87
tp1910
I0
s(g57
g14
tp1911
I0
s(g114
g28
tp1912
I0
s(g77
g146
tp1913
I0
s(g9
g31
tp1914
I0
s(g35
g281
tp1915
I0
s(g164
g90
tp1916
I0
s(g57
g146
tp1917
I0
s(g96
g28
tp1918
I0
s(g21
g118
tp1919
I0
s(g148
g124
tp1920
I0
s(g295
g2
tp1921
I0
s(g161
g20
tp1922
I0
s(g72
g32
tp1923
I0
s(g53
g71
tp1924
I0
s(g129
g71
tp1925
I0
s(g281
g80
tp1926
I0
s(g3
g84
tp1927
I0
s(g100
g65
tp1928
I0
s(g272
g153
tp1929
I0
s(g45
g167
tp1930
I0
s(g45
g214
tp1931
I0
s(g28
g74
tp1932
I0
s(g158
g236
tp1933
I0
s(g43
g281
tp1934
I0
s(g56
g25
tp1935
I0
s(g9
g32
tp1936
I0
s(g71
g84
tp1937
I0
s(g32
g34
tp1938
I0
s(g164
g59
tp1939
I0
s(g115
g94
tp1940
I0
s(g8
g118
tp1941
I0
s(g25
g139
tp1942
I0
s(g21
g32
tp1943
I0
s(g26
g173
tp1944
I0
s(g3
g28
tp1945
I0
s(g77
g25
tp1946
I0
s(g164
g80
tp1947
I0
s(g29
g51
tp1948
I0
s(g84
g236
tp1949
I0
s(g53
g5
tp1950
I0
s(g71
g82
tp1951
I0
s(g88
g25
tp1952
I0
s(g26
g146
tp1953
I0
s(g129
g214
tp1954
I0
s(g236
g20
tp1955
I0
s(g25
g72
tp1956
I0
s(g118
g14
tp1957
I0
s(g69
g94
tp1958
I0
s(g3
g45
tp1959
I0
s(g51
g74
tp1960
I0
s(g139
g190
tp1961
I0
s(g222
g9
tp1962
I0
s(g118
g38
tp1963
I0
s(g118
g45
tp1964
I0
s(g26
g8
tp1965
I0
s(g115
g15
tp1966
I0
s(g111
g222
tp1967
I0
s(g91
g234
tp1968
I0
s(g82
g6
tp1969
I0
s(g45
g45
tp1970
F0.48427672955974843
s(g69
g167
tp1971
I0
s(g23
g21
tp1972
I0
s(g118
g94
tp1973
I0
s(g3
g2
tp1974
I0
s(g148
g28
tp1975
I0
s(g146
g32
tp1976
I0
s(g145
g136
tp1977
I0
s(g107
g45
tp1978
I0
s(g295
g28
tp1979
I0
s(g153
g118
tp1980
I0
s(g272
g105
tp1981
I0
s(g51
g14
tp1982
I0
s(g148
g111
tp1983
I0
s(g6
g178
tp1984
I0
s(g38
g29
tp1985
I0
s(g38
g71
tp1986
I0
s(g51
g38
tp1987
I0
s(g8
g82
tp1988
I0
s(g23
g214
tp1989
I0
s(g111
g9
tp1990
I0
s(g14
g148
tp1991
I0
s(g133
g88
tp1992
I0
s(g78
g136
tp1993
I0
s(g173
g102
tp1994
I0
s(g295
g23
tp1995
I0
s(g214
g59
tp1996
I0
s(g82
g62
tp1997
I0
s(g9
g80
tp1998
I0
s(g90
g136
tp1999
I0
s(g146
g31
tp2000
I0
s(g2
g37
tp2001
I0
s(g11
g281
tp2002
I0
s(g118
g139
tp2003
I0
s(g34
g118
tp2004
I0
s(g65
g281
tp2005
I0
s(g51
g281
tp2006
I0
s(g8
g2
tp2007
I0
s(g105
g15
tp2008
I0
s(g118
g40
tp2009
I0
s(g214
g26
tp2010
I0
s(g17
g122
tp2011
I0
s(g111
g190
tp2012
I0
s(g91
g88
tp2013
I0
s(g59
g69
tp2014
I0
s(g49
g8
tp2015
I0
s(g5
g80
tp2016
I0
s(g142
g80
tp2017
I0
s(g18
g153
tp2018
I0
s(g78
g77
tp2019
I0
s(g51
g56
tp2020
I0
s(g114
g14
tp2021
I0
s(g178
g12
tp2022
I0
s(g129
g100
tp2023
I0
s(g214
g118
tp2024
I0
s(g80
g69
tp2025
I0
s(g18
g129
tp2026
I0
s(g88
g110
tp2027
I0
s(g129
g158
tp2028
I0
s(g26
g178
tp2029
I0
s(g43
g31
tp2030
I0
s(g31
g3
tp2031
I0
s(g6
g158
tp2032
I0
s(g51
g139
tp2033
I0
s(g8
g102
tp2034
I0
s(g148
g161
tp2035
I0
s(g82
g100
tp2036
I0
s(g9
g84
tp2037
I0
s(g69
g74
tp2038
I0
s(g295
g67
tp2039
I0
s(g94
g67
tp2040
I0
s(g23
g129
tp2041
I0
s(g164
g17
tp2042
I0
s(g80
g51
tp2043
I0
s(g145
g28
tp2044
I0
s(g105
g20
tp2045
I0
s(g281
g110
tp2046
I0
s(g65
g190
tp2047
I0
s(g88
g164
tp2048
I0
s(g65
g118
tp2049
I0
s(g67
g31
tp2050
I0
s(g77
g153
tp2051
I0
s(g32
g146
tp2052
I0
s(g82
g145
tp2053
I0
s(g18
g61
tp2054
I0
s(g61
g20
tp2055
I0
s(g88
g136
tp2056
I0
s(g41
g129
tp2057
I0
s(g69
g78
tp2058
I0
s(g6
g78
tp2059
I0
s(g65
g61
tp2060
I0
s(g190
g173
tp2061
I0
s(g88
g20
tp2062
I0
s(g80
g88
tp2063
I0
s(g38
g84
tp2064
I0
s(g236
g25
tp2065
I0
s(g57
g87
tp2066
I0
s(g82
g31
tp2067
I0
s(g25
g32
tp2068
I0
s(g40
g105
tp2069
I0
s(g67
g145
tp2070
I0
s(g41
g164
tp2071
I0
s(g53
g56
tp2072
I0
s(g178
g115
tp2073
I0
s(g272
g90
tp2074
I0
s(g88
g105
tp2075
I0
s(g46
g32
tp2076
I0
s(g56
g59
tp2077
I0
s(g49
g145
tp2078
I0
s(g118
g78
tp2079
I0
s(g111
g2
tp2080
I0
s(g31
g45
tp2081
I0
s(g161
g124
tp2082
I0
s(g272
g9
tp2083
I0
s(g23
g67
tp2084
I0
s(g3
g12
tp2085
I0
s(g49
g91
tp2086
I0
s(g148
g62
tp2087
I0
s(g46
g59
tp2088
I0
s(g173
g139
tp2089
I0
s(g281
g100
tp2090
I0
s(g88
g56
tp2091
I0
s(g72
g281
tp2092
I0
s(g146
g12
tp2093
I0
s(g72
g5
tp2094
I0
s(g222
g35
tp2095
I0
s(g69
g34
tp2096
I0
s(g9
g26
tp2097
I0
s(g46
g6
tp2098
I0
s(g18
g46
tp2099
I0
s(g145
g37
tp2100
I0
s(g41
g21
tp2101
I0
s(g28
g8
tp2102
I0
s(g115
g234
tp2103
I0
s(g18
g45
tp2104
I0
s(g14
g190
tp2105
I0
s(g78
g38
tp2106
I0
s(g107
g41
tp2107
I0
s(g295
g115
tp2108
I0
s(g82
g153
tp2109
I0
s(g8
g25
tp2110
I0
s(g94
g43
tp2111
I0
s(g51
g136
tp2112
I0
s(g74
g51
tp2113
I0
s(g72
g133
tp2114
I0
s(g164
g153
tp2115
I0
s(g34
g12
tp2116
I0
s(g62
g45
tp2117
I0
s(g11
g17
tp2118
I0
s(g236
g59
tp2119
I0
s(g53
g133
tp2120
I0
s(g38
g115
tp2121
I0
s(g236
g84
tp2122
I0
s(g18
g40
tp2123
I0
s(g31
g18
tp2124
I0
s(g45
g148
tp2125
I0
s(g114
g45
tp2126
I0
s(g17
g90
tp2127
I0
s(g142
g190
tp2128
I0
s(g234
g142
tp2129
I0
s(g82
g74
tp2130
I0
s(g222
g114
tp2131
I0
s(g32
g69
tp2132
I0
s(g15
g236
tp2133
I0
s(g87
g28
tp2134
I0
s(g122
g114
tp2135
I0
s(g118
g158
tp2136
I0
s(g236
g34
tp2137
I0
s(g11
g53
tp2138
I0
s(g40
g32
tp2139
I0
s(g51
g87
tp2140
I0
s(g38
g281
tp2141
I0
s(g37
g23
tp2142
I0
s(g3
g20
tp2143
I0
s(g124
g8
tp2144
I0
s(g136
g295
tp2145
I0
s(g115
g118
tp2146
I0
s(g234
g41
tp2147
I0
s(g56
g88
tp2148
I0
s(g90
g102
tp2149
I0
s(g41
g3
tp2150
I0
s(g8
g124
tp2151
I0
s(g111
g6
tp2152
I0
s(g77
g29
tp2153
I0
s(g84
g77
tp2154
I0
s(g124
g146
tp2155
I0
s(g57
g26
tp2156
I0
s(g8
g29
tp2157
I0
s(g107
g164
tp2158
I0
s(g80
g72
tp2159
I0
s(g111
g51
tp2160
I0
s(g71
g91
tp2161
I0
s(g236
g2
tp2162
I0
s(g84
g167
tp2163
I0
s(g153
g34
tp2164
I0
s(g34
g295
tp2165
I0
s(g118
g129
tp2166
I0
s(g28
g272
tp2167
I0
s(g9
g14
tp2168
I0
s(g59
g53
tp2169
I0
s(g87
g161
tp2170
I0
s(g31
g82
tp2171
I0
s(g59
g145
tp2172
I0
s(g74
g145
tp2173
I0
s(g17
g38
tp2174
I0
s(g281
g2
tp2175
I0
s(g88
g190
tp2176
I0
s(g84
g91
tp2177
I0
s(g236
g77
tp2178
I0
s(g122
g40
tp2179
I0
s(g15
g18
tp2180
I0
s(g78
g49
tp2181
I0
s(g69
g23
tp2182
I0
s(g158
g8
tp2183
I0
s(g41
g40
tp2184
I0
s(g118
g69
tp2185
I0
s(g236
g272
tp2186
I0
s(g26
g43
tp2187
I0
s(g173
g29
tp2188
I0
s(g57
g72
tp2189
I0
s(g80
g78
tp2190
F0.24120603015075376
s(g23
g23
tp2191
F0.64000000000000001
s(g17
g146
tp2192
I0
s(g87
g11
tp2193
I0
s(g178
g29
tp2194
I0
s(g90
g295
tp2195
I0
s(g173
g12
tp2196
I0
s(g28
g281
tp2197
I0
s(g129
g77
tp2198
I0
s(g222
g11
tp2199
I0
s(g77
g9
tp2200
I0
s(g40
g153
tp2201
I0
s(g65
g236
tp2202
I0
s(g129
g167
tp2203
I0
s(g295
g6
tp2204
I0
s(g281
g272
tp2205
I0
s(g53
g145
tp2206
I0
s(g139
g11
tp2207
I0
s(g100
g41
tp2208
I0
s(g84
g178
tp2209
I0
s(g136
g61
tp2210
I0
s(g14
g142
tp2211
I0
s(g145
g31
tp2212
I0
s(g71
g46
tp2213
I0
s(g62
g145
tp2214
I0
s(g142
g94
tp2215
I0
s(g142
g110
tp2216
I0
s(g32
g173
tp2217
I0
s(g84
g49
tp2218
I0
s(g222
g53
tp2219
I0
s(g31
g167
tp2220
I0
s(g142
g67
tp2221
I0
s(g222
g161
tp2222
I0
s(g129
g35
tp2223
I0
s(g23
g107
tp2224
I0
s(g145
g87
tp2225
I0
s(g94
g102
tp2226
I0
s(g124
g21
tp2227
I0
s(g88
g18
tp2228
I0
s(g41
g49
tp2229
I0
s(g53
g29
tp2230
I0
s(g158
g94
tp2231
I0
s(g18
g110
tp2232
I0
s(g158
g145
tp2233
I0
s(g110
g5
tp2234
I0
s(g78
g3
tp2235
F0.90418967197141931
s(g96
g40
tp2236
I0
s(g29
g56
tp2237
I0
s(g88
g15
tp2238
I0
s(g146
g110
tp2239
I0
s(g145
g91
tp2240
I0
s(g129
g34
tp2241
F0.14266023432115782
s(g114
g74
tp2242
I0
s(g35
g178
tp2243
I0
s(g18
g20
tp2244
I0
s(g14
g94
tp2245
I0
s(g38
g11
tp2246
I0
s(g161
g167
tp2247
I0
s(g8
g100
tp2248
I0
s(g46
g167
tp2249
I0
s(g88
g23
tp2250
I0
s(g82
g9
tp2251
I0
s(g118
g167
tp2252
I0
s(g122
g2
tp2253
I0
s(g72
g105
tp2254
I0
s(g190
g178
tp2255
I0
s(g133
g78
tp2256
I0
s(g77
g139
tp2257
I0
s(g102
g46
tp2258
I0
s(g3
g51
tp2259
I0
s(g190
g88
tp2260
I0
s(g23
g20
tp2261
I0
s(g41
g107
tp2262
I0
s(g133
g31
tp2263
I0
s(g96
g59
tp2264
I0
s(g46
g18
tp2265
I0
s(g295
g5
tp2266
I0
s(g146
g37
tp2267
I0
s(g15
g43
tp2268
I0
s(g17
g35
tp2269
I0
s(g153
g214
tp2270
I0
s(g45
g91
tp2271
I0
s(g49
g6
tp2272
I0
s(g56
g65
tp2273
I0
s(g29
g26
tp2274
I0
s(g35
g153
tp2275
I0
s(g72
g111
tp2276
I0
s(g62
g153
tp2277
I0
s(g88
g12
tp2278
I0
s(g14
g105
tp2279
I0
s(g114
g69
tp2280
I0
s(g281
g158
tp2281
I0
s(g53
g21
tp2282
I0
s(g43
g65
tp2283
I0
s(g96
g56
tp2284
F1
s(g34
g31
tp2285
I0
s(g136
g236
tp2286
I0
s(g8
g18
tp2287
I0
s(g295
g34
tp2288
F0.19524263128679217
s(g190
g78
tp2289
I0
s(g129
g115
tp2290
I0
s(g18
g148
tp2291
I0
s(g37
g3
tp2292
I0
s(g77
g32
tp2293
I0
s(g118
g102
tp2294
I0
s(g20
g88
tp2295
I0
s(g88
g142
tp2296
I0
s(g74
g146
tp2297
I0
s(g17
g56
tp2298
I0
s(g67
g90
tp2299
I0
s(g29
g173
tp2300
I0
s(g37
g115
tp2301
I0
s(g148
g46
tp2302
I0
s(g3
g105
tp2303
I0
s(g41
g28
tp2304
I0
s(g53
g65
tp2305
I0
s(g178
g74
tp2306
I0
s(g40
g14
tp2307
I0
s(g2
g90
tp2308
I0
s(g111
g129
tp2309
I0
s(g28
g167
tp2310
I0
s(g3
g31
tp2311
I0
s(g133
g71
tp2312
I0
s(g139
g43
tp2313
I0
s(g34
g100
tp2314
I0
s(g29
g129
tp2315
I0
s(g173
g115
tp2316
I0
s(g133
g56
tp2317
I0
s(g158
g29
tp2318
I0
s(g51
g61
tp2319
I0
s(g26
g122
tp2320
I0
s(g46
g37
tp2321
I0
s(g56
g18
tp2322
I0
s(g37
g173
tp2323
I0
s(g74
g164
tp2324
I0
s(g214
g15
tp2325
I0
s(g234
g118
tp2326
I0
s(g17
g26
tp2327
I0
s(g15
g110
tp2328
I0
s(g122
g9
tp2329
I0
s(g56
g84
tp2330
I0
s(g118
g122
tp2331
I0
s(g51
g53
tp2332
I0
s(g146
g100
tp2333
I0
s(g164
g136
tp2334
I0
s(g17
g17
tp2335
F0.9900024384296513
s(g18
g43
tp2336
I0
s(g18
g222
tp2337
I0
s(g41
g114
tp2338
I0
s(g8
g41
tp2339
I0
s(g43
g111
tp2340
I0
s(g139
g31
tp2341
I0
s(g94
g18
tp2342
I0
s(g56
g8
tp2343
I0
s(g214
g37
tp2344
I0
s(g32
g14
tp2345
I0
s(g41
g29
tp2346
I0
s(g167
g146
tp2347
I0
s(g26
g57
tp2348
I0
s(g214
g38
tp2349
I0
s(g2
g72
tp2350
I0
s(g133
g136
tp2351
I0
s(g41
g57
tp2352
I0
s(g69
g96
tp2353
I0
s(g40
g9
tp2354
I0
s(g65
g100
tp2355
I0
s(g90
g88
tp2356
I0
s(g78
g115
tp2357
I0
s(g53
g51
tp2358
I0
s(g32
g142
tp2359
I0
s(g18
g53
tp2360
I0
s(g129
g6
tp2361
I0
s(g115
g107
tp2362
I0
s(g67
g115
tp2363
I0
s(g37
g67
tp2364
I0
s(g38
g61
tp2365
I0
s(g158
g153
tp2366
I0
s(g222
g136
tp2367
I0
s(g5
g35
tp2368
I0
s(g222
g74
tp2369
I0
s(g37
g35
tp2370
I0
s(g139
g45
tp2371
I0
s(g115
g281
tp2372
I0
s(g145
g74
tp2373
I0
s(g153
g100
tp2374
I0
s(g80
g281
tp2375
I0
s(g111
g178
tp2376
I0
s(g122
g77
tp2377
I0
s(g67
g15
tp2378
I0
s(g31
g115
tp2379
I0
s(g136
g37
tp2380
I0
s(g161
g158
tp2381
I0
s(g110
g178
tp2382
I0
s(g45
g111
tp2383
I0
s(g82
g139
tp2384
I0
s(g110
g6
tp2385
I0
s(g29
g161
tp2386
I0
s(g146
g281
tp2387
I0
s(g37
g41
tp2388
I0
s(g222
g38
tp2389
I0
s(g84
g214
tp2390
I0
s(g23
g74
tp2391
I0
s(g2
g6
tp2392
I0
s(g84
g23
tp2393
I0
s(g61
g67
tp2394
I0
s(g161
g142
tp2395
I0
s(g110
g72
tp2396
I0
s(g46
g34
tp2397
I0
s(g14
g25
tp2398
I0
s(g9
g153
tp2399
I0
s(g5
g173
tp2400
I0
s(g124
g102
tp2401
I0
s(g105
g38
tp2402
I0
s(g234
g40
tp2403
I0
s(g67
g124
tp2404
I0
s(g15
g78
tp2405
I0
s(g146
g53
tp2406
I0
s(g61
g38
tp2407
I0
s(g8
g23
tp2408
I0
s(g90
g6
tp2409
I0
s(g214
g145
tp2410
I0
s(g46
g35
tp2411
I0
s(g94
g129
tp2412
I0
s(g43
g67
tp2413
I0
s(g133
g43
tp2414
I0
s(g65
g295
tp2415
I0
s(g139
g20
tp2416
I0
s(g49
g25
tp2417
I0
s(g84
g15
tp2418
I0
s(g107
g124
tp2419
I0
s(g35
g9
tp2420
I0
s(g2
g11
tp2421
I0
s(g31
g67
tp2422
I0
s(g236
g23
tp2423
I0
s(g136
g129
tp2424
I0
s(g158
g139
tp2425
I0
s(g142
g53
tp2426
I0
s(g96
g111
tp2427
I0
s(g41
g67
tp2428
I0
s(g45
g161
tp2429
I0
s(g153
g21
tp2430
I0
s(g11
g190
tp2431
I0
s(g18
g96
tp2432
I0
s(g8
g49
tp2433
I0
s(g53
g15
tp2434
I0
s(g21
g9
tp2435
I0
s(g3
g161
tp2436
I0
s(g74
g18
tp2437
I0
s(g142
g145
tp2438
I0
s(g45
g49
tp2439
I0
s(g158
g45
tp2440
I0
s(g164
g53
tp2441
I0
s(g14
g38
tp2442
I0
s(g102
g45
tp2443
I0
s(g56
g77
tp2444
I0
s(g111
g34
tp2445
I0
s(g110
g118
tp2446
I0
s(g41
g139
tp2447
I0
s(g69
g43
tp2448
I0
s(g153
g3
tp2449
I0
s(g94
g17
tp2450
I0
s(g148
g12
tp2451
I0
s(g272
g20
tp2452
I0
s(g29
g69
tp2453
I0
s(g40
g65
tp2454
I0
s(g146
g161
tp2455
I0
s(g38
g88
tp2456
I0
s(g295
g40
tp2457
I0
s(g87
g234
tp2458
I0
s(g110
g67
tp2459
I0
s(g153
g32
tp2460
I0
s(g49
g124
tp2461
I0
s(g18
g122
tp2462
F0.91304347826086951
s(g118
g23
tp2463
I0
s(g214
g40
tp2464
I0
s(g272
g57
tp2465
I0
s(g114
g59
tp2466
I0
s(g90
g45
tp2467
I0
s(g90
g38
tp2468
I0
s(g114
g78
tp2469
I0
s(g74
g94
tp2470
I0
s(g145
g56
tp2471
I0
s(g45
g236
tp2472
I0
s(g26
g78
tp2473
I0
s(g236
g105
tp2474
I0
s(g11
g161
tp2475
I0
s(g41
g59
tp2476
I0
s(g234
g25
tp2477
I0
s(g8
g46
tp2478
I0
s(g72
g146
tp2479
I0
s(g12
g61
tp2480
I0
s(g158
g74
tp2481
I0
s(g41
g281
tp2482
F0.99429215700091611
s(g281
g122
tp2483
I0
s(g281
g214
tp2484
I0
s(g133
g96
tp2485
I0
s(g23
g136
tp2486
I0
s(g133
g129
tp2487
I0
s(g214
g2
tp2488
I0
s(g9
g234
tp2489
I0
s(g102
g214
tp2490
I0
s(g18
g69
tp2491
I0
s(g87
g61
tp2492
I0
s(g40
g129
tp2493
I0
s(g56
g62
tp2494
I0
s(g72
g61
tp2495
I0
s(g53
g35
tp2496
I0
s(g15
g53
tp2497
I0
s(g11
g100
tp2498
I0
s(g12
g111
tp2499
I0
s(g61
g122
tp2500
I0
s(g8
g105
tp2501
I0
s(g67
g65
tp2502
I0
s(g20
g46
tp2503
I0
s(g114
g214
tp2504
F0.95999999999999996
s(g40
g222
tp2505
I0
s(g190
g20
tp2506
I0
s(g190
g40
tp2507
I0
s(g49
g40
tp2508
I0
s(g272
g122
tp2509
I0
s(g82
g136
tp2510
I0
s(g129
g20
tp2511
I0
s(g72
g71
tp2512
I0
s(g43
g90
tp2513
I0
s(g102
g11
tp2514
I0
s(g118
g190
tp2515
I0
s(g84
g136
tp2516
I0
s(g84
g82
tp2517
I0
s(g59
g139
tp2518
I0
s(g190
g49
tp2519
I0
s(g80
g20
tp2520
I0
s(g41
g110
tp2521
I0
s(g9
g114
tp2522
I0
s(g87
g107
tp2523
I0
s(g105
g222
tp2524
I0
s(g90
g87
tp2525
I0
s(g222
g69
tp2526
I0
s(g146
g115
tp2527
I0
s(g45
g11
tp2528
I0
s(g46
g222
tp2529
I0
s(g164
g15
tp2530
I0
s(g29
g139
tp2531
I0
s(g161
g38
tp2532
I0
s(g67
g20
tp2533
I0
s(g136
g78
tp2534
I0
s(g51
g190
tp2535
I0
s(g87
g146
tp2536
I0
s(g190
g46
tp2537
I0
s(g146
g69
tp2538
I0
s(g61
g69
tp2539
I0
s(g34
g87
tp2540
I0
s(g94
g78
tp2541
I0
s(g38
g124
tp2542
I0
s(g122
g28
tp2543
I0
s(g236
g57
tp2544
I0
s(g80
g53
tp2545
I0
s(g146
g29
tp2546
I0
s(g88
g153
tp2547
I0
s(g14
g56
tp2548
I0
s(g31
g222
tp2549
I0
s(g142
g295
tp2550
I0
s(g25
g31
tp2551
I0
s(g65
g12
tp2552
I0
s(g161
g272
tp2553
I0
s(g31
g72
tp2554
I0
s(g5
g46
tp2555
I0
s(g72
g12
tp2556
I0
s(g35
g21
tp2557
I0
s(g111
g124
tp2558
I0
s(g146
g5
tp2559
I0
s(g31
g129
tp2560
I0
s(g190
g28
tp2561
I0
s(g53
g158
tp2562
I0
s(g161
g107
tp2563
I0
s(g214
g153
tp2564
I0
s(g158
g43
tp2565
I0
s(g190
g142
tp2566
F0.41379310344827586
s(g124
g105
tp2567
I0
s(g43
g49
tp2568
I0
s(g94
g281
tp2569
I0
s(g38
g107
tp2570
F0.33333333333333331
s(g6
g80
tp2571
I0
s(g71
g2
tp2572
I0
s(g82
g46
tp2573
I0
s(g59
g32
tp2574
I0
s(g214
g158
tp2575
I0
s(g145
g129
tp2576
I0
s(g9
g40
tp2577
I0
s(g72
g139
tp2578
I0
s(g20
g234
tp2579
I0
s(g25
g236
tp2580
I0
s(g77
g17
tp2581
I0
s(g129
g74
tp2582
I0
s(g35
g133
tp2583
I0
s(g61
g72
tp2584
I0
s(g78
g78
tp2585
F0.086206896551724144
s(g32
g11
tp2586
I0
s(g57
g234
tp2587
I0
s(g133
g45
tp2588
I0
s(g23
g234
tp2589
I0
s(g129
g102
tp2590
I0
s(g139
g61
tp2591
I0
s(g139
g5
tp2592
I0
s(g190
g236
tp2593
I0
s(g71
g20
tp2594
I0
s(g114
g153
tp2595
I0
s(g12
g139
tp2596
I0
s(g69
g118
tp2597
I0
s(g94
g115
tp2598
I0
s(g6
g28
tp2599
I0
s(g84
g71
tp2600
I0
s(g46
g71
tp2601
I0
s(g32
g53
tp2602
I0
s(g105
g49
tp2603
I0
s(g164
g142
tp2604
I0
s(g129
g65
tp2605
I0
s(g59
g40
tp2606
I0
s(g67
g5
tp2607
I0
s(g77
g53
tp2608
I0
s(g234
g102
tp2609
I0
s(g31
g111
tp2610
I0
s(g122
g15
tp2611
I0
s(g167
g67
tp2612
I0
s(g124
g53
tp2613
I0
s(g158
g115
tp2614
I0
s(g6
g161
tp2615
I0
s(g236
g67
tp2616
I0
s(g12
g146
tp2617
I0
s(g139
g110
tp2618
I0
s(g114
g90
tp2619
I0
s(g190
g272
tp2620
I0
s(g61
g34
tp2621
I0
s(g129
g43
tp2622
I0
s(g67
g46
tp2623
I0
s(g8
g167
tp2624
I0
s(g71
g78
tp2625
I0
s(g59
g136
tp2626
I0
s(g59
g74
tp2627
I0
s(g80
g3
tp2628
F0.97889403934556318
s(g78
g8
tp2629
I0
s(g214
g72
tp2630
I0
s(g107
g122
tp2631
I0
s(g158
g40
tp2632
I0
s(g8
g80
tp2633
I0
s(g272
g142
tp2634
I0
s(g161
g222
tp2635
I0
s(g20
g236
tp2636
I0
s(g65
g136
tp2637
I0
s(g146
g107
tp2638
I0
s(g234
g133
tp2639
I0
s(g178
g8
tp2640
I0
s(g153
g87
tp2641
I0
s(g38
g96
tp2642
I0
s(g78
g71
tp2643
I0
s(g11
g124
tp2644
I0
s(g35
g53
tp2645
I0
s(g88
g161
tp2646
I0
s(g87
g100
tp2647
I0
s(g45
g115
tp2648
I0
s(g145
g122
tp2649
I0
s(g80
g142
tp2650
I0
s(g49
g43
tp2651
I0
s(g5
g158
tp2652
I0
s(g21
g62
tp2653
I0
s(g46
g29
tp2654
I0
s(g142
g9
tp2655
I0
s(g90
g281
tp2656
I0
s(g110
g14
tp2657
I0
s(g295
g214
tp2658
I0
s(g37
g133
tp2659
I0
s(g88
g14
tp2660
I0
s(g74
g61
tp2661
I0
s(g6
g82
tp2662
I0
s(g87
g145
tp2663
I0
s(g74
g56
tp2664
I0
s(g46
g5
tp2665
I0
s(g105
g61
tp2666
I0
s(g31
g139
tp2667
I0
s(g6
g74
tp2668
I0
s(g142
g71
tp2669
I0
s(g122
g142
tp2670
I0
s(g56
g94
tp2671
I0
s(g46
g94
tp2672
I0
s(g69
g145
tp2673
I0
s(g74
g281
tp2674
I0
s(g105
g77
tp2675
I0
s(g124
g56
tp2676
I0
s(g20
g62
tp2677
I0
s(g80
g26
tp2678
I0
s(g111
g167
tp2679
I0
s(g115
g72
tp2680
I0
s(g43
g77
tp2681
I0
s(g139
g41
tp2682
I0
s(g71
g111
tp2683
I0
s(g133
g115
tp2684
I0
s(g65
g11
tp2685
I0
s(g65
g9
tp2686
I0
s(g41
g222
tp2687
I0
s(g31
g6
tp2688
I0
s(g146
g38
tp2689
I0
s(g96
g133
tp2690
I0
s(g84
g118
tp2691
I0
s(g9
g9
tp2692
F0.47904191616766467
s(g18
g2
tp2693
I0
s(g214
g91
tp2694
I0
s(g129
g153
tp2695
I0
s(g173
g145
tp2696
I0
s(g38
g20
tp2697
I0
s(g96
g34
tp2698
I0
s(g142
g173
tp2699
I0
s(g57
g142
tp2700
I0
s(g21
g94
tp2701
I0
s(g110
g139
tp2702
I0
s(g88
g9
tp2703
I0
s(g136
g41
tp2704
I0
s(g15
g31
tp2705
I0
s(g100
g51
tp2706
I0
s(g34
g214
tp2707
I0
s(g17
g164
tp2708
I0
s(g49
g23
tp2709
I0
s(g142
g37
tp2710
I0
s(g96
g96
tp2711
I0
s(g148
g80
tp2712
I0
s(g148
g295
tp2713
I0
s(g146
g164
tp2714
I0
s(g38
g43
tp2715
I0
s(g57
g17
tp2716
I0
s(g14
g178
tp2717
I0
s(g46
g272
tp2718
I0
s(g9
g65
tp2719
I0
s(g35
g94
tp2720
I0
s(g100
g69
tp2721
I0
s(g272
g87
tp2722
I0
s(g20
g139
tp2723
F0.13170731707317074
s(g34
g173
tp2724
I0
s(g5
g53
tp2725
I0
s(g38
g173
tp2726
I0
s(g146
g57
tp2727
I0
s(g146
g105
tp2728
I0
s(g178
g78
tp2729
I0
s(g28
g67
tp2730
I0
s(g32
g20
tp2731
I0
s(g133
g34
tp2732
I0
s(g145
g88
tp2733
I0
s(g173
g91
tp2734
I0
s(g118
g35
tp2735
I0
s(g139
g158
tp2736
I0
s(g77
g46
tp2737
I0
s(g158
g122
tp2738
I0
s(g80
g65
tp2739
I0
s(g139
g28
tp2740
I0
s(g111
g107
tp2741
I0
s(g49
g110
tp2742
I0
s(g111
g59
tp2743
I0
s(g110
g82
tp2744
I0
s(g71
g124
tp2745
I0
s(g114
g9
tp2746
I0
s(g158
g82
tp2747
I0
s(g148
g8
tp2748
I0
s(g105
g161
tp2749
I0
s(g118
g32
tp2750
I0
s(g236
g173
tp2751
F0.54421768707482998
s(g145
g49
tp2752
I0
s(g61
g91
tp2753
I0
s(g11
g69
tp2754
I0
s(g90
g41
tp2755
I0
s(g31
g23
tp2756
I0
s(g122
g38
tp2757
I0
s(g67
g161
tp2758
I0
s(g3
g61
tp2759
I0
s(g9
g110
tp2760
I0
s(g107
g29
tp2761
I0
s(g31
g84
tp2762
I0
s(g6
g236
tp2763
I0
s(g49
g82
tp2764
I0
s(g45
g3
tp2765
I0
s(g105
g8
tp2766
I0
s(g142
g139
tp2767
I0
s(g5
g222
tp2768
I0
s(g41
g6
tp2769
I0
s(g40
g31
tp2770
I0
s(g25
g122
tp2771
I0
s(g72
g272
tp2772
I0
s(g32
g118
tp2773
I0
s(g41
g82
tp2774
I0
s(g53
g167
tp2775
I0
s(g74
g158
tp2776
I0
s(g100
g61
tp2777
I0
s(g74
g5
tp2778
I0
s(g295
g148
tp2779
I0
s(g43
g26
tp2780
I0
s(g91
g118
tp2781
I0
s(g164
g234
tp2782
I0
s(g295
g146
tp2783
I0
s(g57
g12
tp2784
I0
s(g67
g11
tp2785
I0
s(g28
g28
tp2786
F0.98742880098309904
s(g71
g18
tp2787
I0
s(g115
g23
tp2788
F0.5
s(g41
g124
tp2789
I0
s(g77
g74
tp2790
I0
s(g38
g136
tp2791
I0
s(g8
g59
tp2792
I0
s(g43
g40
tp2793
I0
s(g57
g69
tp2794
I0
s(g18
g26
tp2795
I0
s(g11
g102
tp2796
I0
s(g164
g139
tp2797
I0
s(g57
g105
tp2798
I0
s(g145
g71
tp2799
I0
s(g90
g31
tp2800
I0
s(g28
g84
tp2801
F0.40625
s(g25
g164
tp2802
I0
s(g62
g110
tp2803
I0
s(g3
g21
tp2804
I0
s(g158
g133
tp2805
I0
s(g56
g234
tp2806
I0
s(g14
g12
tp2807
I0
s(g80
g62
tp2808
I0
s(g84
g107
tp2809
I0
s(g37
g84
tp2810
I0
s(g46
g164
tp2811
I0
s(g281
g145
tp2812
I0
s(g146
g21
tp2813
I0
s(g110
g114
tp2814
I0
s(g12
g91
tp2815
I0
s(g115
g32
tp2816
I0
s(g56
g78
tp2817
I0
s(g17
g72
tp2818
I0
s(g153
g146
tp2819
I0
s(g100
g102
tp2820
I0
s(g17
g15
tp2821
I0
s(g115
g133
tp2822
I0
s(g69
g139
tp2823
I0
s(g78
g234
tp2824
I0
s(g164
g161
tp2825
I0
s(g124
g61
tp2826
I0
s(g17
g129
tp2827
I0
s(g53
g37
tp2828
I0
s(g178
g61
tp2829
I0
s(g18
g11
tp2830
I0
s(g153
g77
tp2831
I0
s(g23
g18
tp2832
I0
s(g28
g105
tp2833
I0
s(g29
g65
tp2834
I0
s(g20
g222
tp2835
I0
s(g164
g84
tp2836
I0
s(g161
g45
tp2837
I0
s(g20
g124
tp2838
I0
s(g118
g17
tp2839
I0
s(g37
g78
tp2840
I0
s(g34
g71
tp2841
I0
s(g46
g11
tp2842
I0
s(g32
g102
tp2843
I0
s(g178
g114
tp2844
I0
s(g178
g236
tp2845
I0
s(g222
g84
tp2846
I0
s(g222
g110
tp2847
I0
s(g173
g96
tp2848
I0
s(g37
g59
tp2849
I0
s(g53
g23
tp2850
I0
s(g74
g272
tp2851
I0
s(g67
g122
tp2852
I0
s(g18
g145
tp2853
I0
s(g129
g23
tp2854
I0
s(g295
g111
tp2855
I0
s(g18
g38
tp2856
I0
s(g153
g107
tp2857
I0
s(g21
g25
tp2858
I0
s(g65
g8
tp2859
I0
s(g94
g161
tp2860
I0
s(g43
g32
tp2861
I0
s(g15
g41
tp2862
I0
s(g136
g31
tp2863
I0
s(g158
g35
tp2864
I0
s(g17
g5
tp2865
I0
s(g96
g94
tp2866
I0
s(g25
g14
tp2867
I0
s(g167
g164
tp2868
I0
s(g87
g23
tp2869
I0
s(g96
g82
tp2870
I0
s(g136
g136
tp2871
F0.4375
s(g62
g91
tp2872
I0
s(g43
g61
tp2873
I0
s(g9
g96
tp2874
I0
s(g29
g77
tp2875
I0
s(g18
g15
tp2876
I0
s(g173
g45
tp2877
I0
s(g161
g136
tp2878
I0
s(g167
g190
tp2879
I0
s(g51
g102
tp2880
I0
s(g29
g146
tp2881
I0
s(g272
g14
tp2882
F0.99472913616398251
s(g51
g105
tp2883
I0
s(g114
g158
tp2884
I0
s(g82
g82
tp2885
F0.98516055868412644
s(g14
g23
tp2886
I0
s(g26
g51
tp2887
I0
s(g62
g26
tp2888
I0
s(g124
g142
tp2889
I0
s(g20
g71
tp2890
I0
s(g37
g272
tp2891
I0
s(g35
g102
tp2892
I0
s(g59
g281
tp2893
I0
s(g82
g190
tp2894
I0
s(g281
g5
tp2895
I0
s(g8
g45
tp2896
I0
s(g167
g129
tp2897
I0
s(g5
g29
tp2898
I0
s(g167
g17
tp2899
I0
s(g118
g148
tp2900
I0
s(g61
g11
tp2901
I0
s(g178
g65
tp2902
I0
s(g78
g59
tp2903
I0
s(g6
g136
tp2904
I0
s(g110
g295
tp2905
I0
s(g122
g222
tp2906
I0
s(g15
g118
tp2907
I0
s(g20
g9
tp2908
I0
s(g69
g71
tp2909
I0
s(g158
g148
tp2910
I0
s(g5
g5
tp2911
F0.40441176470588236
s(g118
g153
tp2912
I0
s(g37
g142
tp2913
I0
s(g72
g45
tp2914
I0
s(g45
g158
tp2915
I0
s(g214
g65
tp2916
I0
s(g114
g5
tp2917
I0
s(g272
g88
tp2918
I0
s(g6
g88
tp2919
F0.9149125685621865
s(g190
g5
tp2920
I0
s(g107
g84
tp2921
I0
s(g222
g67
tp2922
I0
s(g3
g67
tp2923
I0
s(g26
g14
tp2924
I0
s(g11
g26
tp2925
I0
s(g51
g3
tp2926
I0
s(g71
g272
tp2927
I0
s(g69
g214
tp2928
I0
s(g118
g37
tp2929
I0
s(g111
g31
tp2930
I0
s(g82
g18
tp2931
I0
s(g41
g11
tp2932
I0
s(g110
g46
tp2933
I0
s(g100
g142
tp2934
I0
s(g65
g34
tp2935
I0
s(g8
g129
tp2936
I0
s(g90
g161
tp2937
I0
s(g34
g136
tp2938
I0
s(g87
g12
tp2939
I0
s(g18
g105
tp2940
I0
s(g25
g167
tp2941
I0
s(g295
g14
tp2942
I0
s(g178
g5
tp2943
I0
s(g236
g61
tp2944
I0
s(g124
g17
tp2945
I0
s(g272
g69
tp2946
I0
s(g91
g102
tp2947
I0
s(g61
g178
tp2948
I0
s(g118
g46
tp2949
I0
s(g94
g272
tp2950
I0
s(g133
g158
tp2951
I0
s(g3
g142
tp2952
I0
s(g35
g148
tp2953
I0
s(g5
g21
tp2954
I0
s(g37
g295
tp2955
I0
s(g26
g88
tp2956
I0
s(g67
g2
tp2957
I0
s(g53
g222
tp2958
I0
s(g15
g51
tp2959
I0
s(g146
g18
tp2960
I0
s(g23
g11
tp2961
F0.93360995850622397
s(g49
g129
tp2962
I0
s(g234
g43
tp2963
I0
s(g9
g53
tp2964
I0
s(g178
g105
tp2965
I0
s(g102
g8
tp2966
I0
s(g80
g46
tp2967
I0
s(g49
g21
tp2968
I0
s(g3
g129
tp2969
I0
s(g43
g2
tp2970
I0
s(g96
g35
tp2971
I0
s(g11
g114
tp2972
I0
s(g105
g6
tp2973
I0
s(g78
g145
tp2974
I0
s(g9
g25
tp2975
I0
s(g129
g82
tp2976
I0
s(g51
g46
tp2977
I0
s(g9
g15
tp2978
I0
s(g91
g31
tp2979
I0
s(g167
g15
tp2980
I0
s(g32
g139
tp2981
I0
s(g8
g37
tp2982
I0
s(g272
g28
tp2983
I0
s(g122
g49
tp2984
I0
s(g122
g69
tp2985
I0
s(g43
g87
tp2986
I0
s(g41
g115
tp2987
I0
s(g20
g20
tp2988
F0.9957115225830554
s(g136
g161
tp2989
I0
s(g9
g118
tp2990
I0
s(g129
g148
tp2991
I0
s(g129
g96
tp2992
I0
s(g31
g272
tp2993
I0
s(g107
g167
tp2994
I0
s(g102
g136
tp2995
I0
s(g69
g41
tp2996
I0
s(g18
g146
tp2997
I0
s(g84
g2
tp2998
I0
s(g80
g115
tp2999
I0
s(g43
g118
tp3000
I0
s(g12
g26
tp3001
I0
s(g53
g153
tp3002
I0
s(g100
g118
tp3003
I0
s(g153
g28
tp3004
I0
s(g65
g164
tp3005
I0
s(g6
g90
tp3006
I0
s(g94
g94
tp3007
F0.9989896291822965
s(g8
g96
tp3008
I0
s(g15
g77
tp3009
I0
s(g11
g74
tp3010
I0
s(g153
g46
tp3011
I0
s(g129
g3
tp3012
I0
s(g40
g26
tp3013
I0
s(g29
g62
tp3014
I0
s(g158
g190
tp3015
I0
s(g136
g102
tp3016
I0
s(g167
g5
tp3017
I0
s(g49
g53
tp3018
I0
s(g65
g29
tp3019
I0
s(g25
g87
tp3020
I0
s(g56
g72
tp3021
I0
s(g15
g136
tp3022
I0
s(g190
g9
tp3023
I0
s(g57
g32
tp3024
I0
s(g78
g111
tp3025
I0
s(g124
g173
tp3026
I0
s(g40
g161
tp3027
I0
s(g41
g236
tp3028
I0
s(g161
g96
tp3029
I0
s(g148
g74
tp3030
I0
s(g139
g236
tp3031
I0
s(g115
g111
tp3032
I0
s(g111
g37
tp3033
I0
s(g82
g90
tp3034
I0
s(g9
g111
tp3035
I0
s(g46
g21
tp3036
I0
s(g272
g62
tp3037
I0
s(g87
g190
tp3038
I0
s(g65
g107
tp3039
I0
s(g80
g102
tp3040
I0
s(g78
g295
tp3041
I0
s(g90
g65
tp3042
I0
s(g3
g87
tp3043
I0
s(g61
g142
tp3044
I0
s(g114
g272
tp3045
I0
s(g40
g56
tp3046
F0.051324393949402213
s(g122
g61
tp3047
I0
s(g21
g8
tp3048
I0
s(g148
g115
tp3049
I0
s(g5
g281
tp3050
I0
s(g31
g56
tp3051
I0
s(g6
g35
tp3052
I0
s(g105
g142
tp3053
I0
s(g114
g77
tp3054
I0
s(g129
g28
tp3055
I0
s(g43
g45
tp3056
I0
s(g5
g43
tp3057
I0
s(g111
g56
tp3058
I0
s(g65
g153
tp3059
I0
s(g69
g35
tp3060
I0
s(g122
g14
tp3061
I0
s(g142
g78
tp3062
I0
s(g5
g161
tp3063
I0
s(g5
g56
tp3064
I0
s(g35
g114
tp3065
I0
s(g129
g110
tp3066
I0
s(g62
g114
tp3067
I0
s(g295
g94
tp3068
I0
s(g161
g161
tp3069
F0.97275204359673018
s(g67
g139
tp3070
I0
s(g62
g87
tp3071
I0
s(g222
g61
tp3072
I0
s(g28
g14
tp3073
I0
s(g153
g91
tp3074
I0
s(g77
g65
tp3075
I0
s(g2
g25
tp3076
I0
s(g35
g136
tp3077
I0
s(g31
g88
tp3078
I0
s(g32
g214
tp3079
I0
s(g56
g115
tp3080
I0
s(g8
g62
tp3081
I0
s(g69
g234
tp3082
I0
s(g111
g102
tp3083
I0
s(g78
g124
tp3084
I0
s(g49
g118
tp3085
I0
s(g21
g28
tp3086
I0
s(g59
g72
tp3087
I0
s(g5
g11
tp3088
I0
s(g20
g129
tp3089
I0
s(g214
g45
tp3090
I0
s(g111
g122
tp3091
I0
s(g178
g45
tp3092
I0
s(g145
g25
tp3093
I0
s(g236
g41
tp3094
I0
s(g59
g129
tp3095
I0
s(g133
g67
tp3096
I0
s(g32
g38
tp3097
I0
s(g65
g23
tp3098
I0
s(g69
g49
tp3099
I0
s(g129
g114
tp3100
I0
s(g133
g110
tp3101
I0
s(g114
g34
tp3102
I0
s(g114
g107
tp3103
I0
s(g21
g69
tp3104
I0
s(g153
g31
tp3105
I0
s(g69
g178
tp3106
I0
s(g114
g51
tp3107
I0
s(g67
g61
tp3108
I0
s(g6
g87
tp3109
I0
s(g236
g46
tp3110
I0
s(g77
g80
tp3111
I0
s(g148
g96
tp3112
I0
s(g3
g78
tp3113
I0
s(g129
g133
tp3114
I0
s(g90
g62
tp3115
I0
s(g102
g234
tp3116
I0
s(g115
g31
tp3117
I0
s(g222
g32
tp3118
I0
s(g17
g107
tp3119
I0
s(g51
g2
tp3120
I0
s(g178
g57
tp3121
I0
s(g146
g78
tp3122
I0
s(g145
g115
tp3123
I0
s(g114
g84
tp3124
I0
s(g107
g129
tp3125
I0
s(g167
g105
tp3126
I0
s(g8
g21
tp3127
I0
s(g148
g23
tp3128
I0
s(g281
g67
tp3129
I0
s(g173
g124
tp3130
I0
s(g146
g9
tp3131
I0
s(g56
g34
tp3132
I0
s(g51
g45
tp3133
I0
s(g145
g15
tp3134
I0
s(g122
g80
tp3135
F0.98027670165306746
s(g129
g69
tp3136
I0
s(g37
g77
tp3137
F0.94999999999999996
s(g295
g91
tp3138
I0
s(g234
g272
tp3139
I0
s(g102
g23
tp3140
I0
s(g84
g46
tp3141
I0
s(g88
g90
tp3142
I0
s(g67
g107
tp3143
I0
s(g133
g190
tp3144
I0
s(g88
g53
tp3145
I0
s(g74
g214
tp3146
I0
s(g124
g91
tp3147
I0
s(g43
g14
tp3148
I0
s(g222
g40
tp3149
I0
s(g20
g59
tp3150
I0
s(g14
g3
tp3151
I0
s(g71
g28
tp3152
I0
s(g74
g77
tp3153
I0
s(g20
g11
tp3154
I0
s(g129
g111
tp3155
I0
s(g9
g2
tp3156
I0
s(g115
g35
tp3157
I0
s(g51
g88
tp3158
I0
s(g153
g158
tp3159
I0
s(g74
g74
tp3160
F0.98443579766536971
s(g67
g142
tp3161
I0
s(g96
g161
tp3162
I0
s(g148
g25
tp3163
I0
s(g124
g74
tp3164
I0
s(g82
g41
tp3165
I0
s(g80
g173
tp3166
I0
s(g3
g56
tp3167
I0
s(g94
g6
tp3168
I0
s(g145
g34
tp3169
I0
s(g100
g164
tp3170
I0
s(g45
g281
tp3171
I0
s(g111
g17
tp3172
I0
s(g56
g102
tp3173
I0
s(g164
g9
tp3174
I0
s(g272
g114
tp3175
I0
s(g69
g77
tp3176
I0
s(g148
g3
tp3177
I0
s(g2
g115
tp3178
I0
s(g96
g281
tp3179
I0
s(g20
g53
tp3180
I0
s(g32
g82
tp3181
I0
s(g77
g167
tp3182
I0
s(g236
g236
tp3183
F0.99194279383623718
s(g59
g82
tp3184
I0
s(g3
g281
tp3185
I0
s(g11
g28
tp3186
I0
s(g178
g146
tp3187
I0
s(g173
g59
tp3188
I0
s(g77
g161
tp3189
I0
s(g77
g20
tp3190
I0
s(g88
g51
tp3191
I0
s(g18
g107
tp3192
I0
s(g51
g178
tp3193
I0
s(g28
g142
tp3194
I0
s(g46
g148
tp3195
I0
s(g77
g124
tp3196
I0
s(g124
g14
tp3197
I0
s(g167
g111
tp3198
I0
s(g28
g91
tp3199
I0
s(g118
g28
tp3200
I0
s(g57
g40
tp3201
I0
s(g38
g5
tp3202
I0
s(g100
g11
tp3203
I0
s(g94
g62
tp3204
I0
s(g214
g74
tp3205
I0
s(g35
g5
tp3206
I0
s(g87
g29
tp3207
I0
s(g167
g35
tp3208
I0
s(g115
g80
tp3209
I0
s(g11
g107
tp3210
I0
s(g80
g139
tp3211
I0
s(g51
g90
tp3212
I0
s(g118
g84
tp3213
I0
s(g84
g111
tp3214
I0
s(g57
g65
tp3215
I0
s(g74
g17
tp3216
I0
s(g146
g94
tp3217
F0.49714285714285716
s(g57
g21
tp3218
I0
s(g173
g49
tp3219
I0
s(g59
g118
tp3220
I0
s(g222
g46
tp3221
F0.93333333333333335
s(g26
g5
tp3222
I0
s(g18
g90
tp3223
I0
s(g69
g45
tp3224
I0
s(g80
g12
tp3225
I0
s(g29
g214
tp3226
I0
s(g107
g82
tp3227
I0
s(g161
g5
tp3228
I0
s(g84
g34
tp3229
I0
s(g281
g153
tp3230
I0
s(g124
g57
tp3231
I0
s(g49
g18
tp3232
I0
s(g62
g14
tp3233
I0
s(g122
g32
tp3234
I0
s(g21
g146
tp3235
I0
s(g118
g222
tp3236
I0
s(g100
g14
tp3237
I0
s(g21
g49
tp3238
I0
s(g214
g87
tp3239
I0
s(g236
g111
tp3240
I0
s(g178
g139
tp3241
I0
s(g80
g161
tp3242
I0
s(g26
g9
tp3243
I0
s(g124
g11
tp3244
I0
s(g139
g114
tp3245
I0
s(g12
g129
tp3246
I0
s(g164
g43
tp3247
I0
s(g34
g40
tp3248
I0
s(g190
g115
tp3249
I0
s(g105
g74
tp3250
I0
s(g8
g31
tp3251
I0
s(g139
g167
tp3252
I0
s(g295
g173
tp3253
I0
s(g61
g56
tp3254
I0
s(g53
g118
tp3255
I0
s(g32
g100
tp3256
I0
s(g124
g26
tp3257
I0
s(g40
g142
tp3258
I0
s(g84
g87
tp3259
I0
s(g32
g178
tp3260
I0
s(g105
g56
tp3261
I0
s(g46
g96
tp3262
I0
s(g115
g82
tp3263
I0
s(g20
g214
tp3264
I0
s(g114
g46
tp3265
I0
s(g29
g71
tp3266
I0
s(g142
g65
tp3267
I0
s(g234
g5
tp3268
I0
s(g158
g59
tp3269
I0
s(g96
g71
tp3270
I0
s(g222
g173
tp3271
I0
s(g115
g6
tp3272
I0
s(g31
g87
tp3273
I0
s(g87
g69
tp3274
I0
s(g102
g17
tp3275
I0
s(g12
g173
tp3276
I0
s(g118
g272
tp3277
I0
s(g17
g105
tp3278
I0
s(g15
g15
tp3279
F0.99476439790575921
s(g281
g222
tp3280
I0
s(g94
g35
tp3281
I0
s(g17
g214
tp3282
I0
s(g65
g139
tp3283
I0
s(g46
g133
tp3284
I0
s(g35
g272
tp3285
I0
s(g146
g65
tp3286
I0
s(g61
g26
tp3287
I0
s(g43
g133
tp3288
I0
s(g41
g20
tp3289
I0
s(g57
g110
tp3290
I0
s(g28
g3
tp3291
I0
s(g12
g2
tp3292
I0
s(g234
g49
tp3293
I0
s(g53
g72
tp3294
I0
s(g65
g72
tp3295
I0
s(g46
g114
tp3296
I0
s(g190
g122
tp3297
I0
s(g236
g78
tp3298
I0
s(g115
g26
tp3299
I0
s(g15
g5
tp3300
I0
s(g190
g67
tp3301
I0
s(g21
g18
tp3302
I0
s(g34
g234
tp3303
I0
s(g14
g118
tp3304
I0
s(g12
g100
tp3305
I0
s(g5
g18
tp3306
I0
s(g118
g8
tp3307
I0
s(g114
g148
tp3308
I0
s(g25
g15
tp3309
I0
s(g31
g133
tp3310
I0
s(g74
g21
tp3311
I0
s(g145
g167
tp3312
I0
s(g5
g74
tp3313
I0
s(g100
g53
tp3314
I0
s(g222
g111
tp3315
I0
s(g37
g37
tp3316
F0.67796610169491522
s(g72
g96
tp3317
I0
s(g26
g23
tp3318
I0
s(g74
g14
tp3319
I0
s(g38
g272
tp3320
I0
s(g153
g153
tp3321
F0.45333333333333331
s(g105
g111
tp3322
I0
s(g190
g153
tp3323
I0
s(g28
g37
tp3324
I0
s(g18
g23
tp3325
I0
s(g5
g214
tp3326
I0
s(g9
g214
tp3327
I0
s(g28
g236
tp3328
I0
s(g102
g114
tp3329
I0
s(g53
g236
tp3330
I0
s(g18
g136
tp3331
I0
s(g272
g59
tp3332
I0
s(g281
g105
tp3333
I0
s(g43
g15
tp3334
I0
s(g96
g23
tp3335
I0
s(g32
g62
tp3336
I0
s(g164
g110
tp3337
I0
s(g26
g295
tp3338
I0
s(g74
g115
tp3339
I0
s(g15
g67
tp3340
I0
s(g65
g87
tp3341
I0
s(g124
g87
tp3342
I0
s(g84
g80
tp3343
I0
s(g37
g110
tp3344
I0
s(g38
g161
tp3345
I0
s(g118
g6
tp3346
I0
s(g18
g67
tp3347
I0
s(g74
g133
tp3348
F0.52173913043478259
s(g80
g122
tp3349
I0
s(g40
g178
tp3350
I0
s(g53
g110
tp3351
I0
s(g158
g164
tp3352
I0
s(g49
g17
tp3353
I0
s(g173
g214
tp3354
I0
s(g40
g122
tp3355
I0
s(g124
g80
tp3356
I0
s(g178
g167
tp3357
I0
s(g100
g20
tp3358
I0
s(g21
g40
tp3359
I0
s(g161
g15
tp3360
I0
s(g37
g49
tp3361
I0
s(g153
g94
tp3362
I0
s(g67
g38
tp3363
I0
s(g38
g139
tp3364
I0
s(g214
g23
tp3365
I0
s(g72
g142
tp3366
I0
s(g236
g281
tp3367
I0
s(g62
g90
tp3368
F0.99216357055774207
s(g28
g114
tp3369
I0
s(g178
g118
tp3370
I0
s(g80
g105
tp3371
I0
s(g43
g124
tp3372
I0
s(g72
g173
tp3373
I0
s(g84
g9
tp3374
I0
s(g214
g272
tp3375
I0
s(g158
g272
tp3376
I0
s(g118
g74
tp3377
I0
s(g15
g21
tp3378
I0
s(g2
g40
tp3379
I0
s(g164
g18
tp3380
I0
s(g124
g122
tp3381
I0
s(g28
g161
tp3382
I0
s(g115
g37
tp3383
I0
s(g74
g35
tp3384
I0
s(g272
g214
tp3385
I0
s(g57
g118
tp3386
F0.98577524893314372
s(g65
g31
tp3387
I0
s(g167
g57
tp3388
I0
s(g110
g110
tp3389
F0.99781571976216854
s(g281
g167
tp3390
I0
s(g25
g43
tp3391
I0
s(g9
g105
tp3392
I0
s(g77
g91
tp3393
I0
s(g80
g25
tp3394
I0
s(g6
g71
tp3395
I0
s(g2
g74
tp3396
I0
s(g2
g23
tp3397
I0
s(g100
g114
tp3398
I0
s(g90
g5
tp3399
I0
s(g21
g26
tp3400
I0
s(g295
g105
tp3401
I0
s(g100
g80
tp3402
I0
s(g8
g222
tp3403
I0
s(g82
g14
tp3404
I0
s(g236
g102
tp3405
I0
s(g88
g62
tp3406
I0
s(g295
g142
tp3407
I0
s(g115
g110
tp3408
I0
s(g129
g26
tp3409
I0
s(g11
g40
tp3410
I0
s(g12
g133
tp3411
I0
s(g49
g37
tp3412
I0
s(g74
g161
tp3413
I0
s(g65
g41
tp3414
I0
s(g82
g23
tp3415
I0
s(g31
g37
tp3416
I0
s(g35
g115
tp3417
I0
s(g84
g14
tp3418
I0
s(g114
g190
tp3419
I0
s(g74
g20
tp3420
I0
s(g23
g72
tp3421
I0
s(g29
g6
tp3422
I0
s(g29
g164
tp3423
I0
s(g43
g190
tp3424
I0
s(g40
g107
tp3425
I0
s(g3
g111
tp3426
I0
s(g158
g142
tp3427
I0
s(g29
g38
tp3428
I0
s(g62
g71
tp3429
I0
s(g62
g2
tp3430
I0
s(g14
g67
tp3431
I0
s(g69
g161
tp3432
I0
s(g88
g236
tp3433
I0
s(g145
g8
tp3434
I0
s(g56
g295
tp3435
I0
s(g12
g107
tp3436
I0
s(g105
g53
tp3437
I0
s(g96
g139
tp3438
I0
s(g167
g214
tp3439
I0
s(g161
g17
tp3440
I0
s(g11
g142
tp3441
I0
s(g122
g18
tp3442
I0
s(g9
g281
tp3443
I0
s(g9
g59
tp3444
I0
s(g178
g90
tp3445
I0
s(g3
g136
tp3446
I0
s(g214
g236
tp3447
I0
s(g8
g53
tp3448
I0
s(g124
g65
tp3449
I0
s(g295
g72
tp3450
I0
s(g96
g72
tp3451
I0
s(g122
g57
tp3452
I0
s(g25
g65
tp3453
I0
s(g190
g91
tp3454
I0
s(g88
g61
tp3455
I0
s(g67
g6
tp3456
I0
s(g8
g88
tp3457
I0
s(g100
g71
tp3458
I0
s(g167
g21
tp3459
I0
s(g5
g146
tp3460
I0
s(g118
g118
tp3461
F0.59121171770972036
s(g37
g87
tp3462
I0
s(g173
g100
tp3463
I0
s(g17
g178
tp3464
I0
s(g102
g72
tp3465
I0
s(g71
g51
tp3466
F0.30655817252062256
s(g51
g57
tp3467
I0
s(g102
g124
tp3468
I0
s(g91
g77
tp3469
I0
s(g45
g2
tp3470
I0
s(g80
g67
tp3471
I0
s(g65
g49
tp3472
I0
s(g77
g57
tp3473
I0
s(g124
g72
tp3474
I0
s(g164
g77
tp3475
I0
s(g32
g71
tp3476
I0
s(g65
g148
tp3477
I0
s(g146
g45
tp3478
I0
s(g77
g8
tp3479
I0
s(g82
g3
tp3480
I0
s(g45
g173
tp3481
I0
s(g40
g17
tp3482
I0
s(g49
g35
tp3483
I0
s(g148
g71
tp3484
I0
s(g139
g105
tp3485
I0
s(g6
g122
tp3486
I0
s(g28
g35
tp3487
I0
s(g62
g65
tp3488
I0
s(g145
g84
tp3489
I0
s(g234
g115
tp3490
I0
s(g26
g53
tp3491
I0
s(g111
g49
tp3492
I0
s(g26
g25
tp3493
I0
s(g29
g142
tp3494
I0
s(g82
g158
tp3495
I0
s(g32
g5
tp3496
I0
s(g118
g53
tp3497
I0
s(g20
g107
tp3498
I0
s(g34
g6
tp3499
I0
s(g84
g11
tp3500
I0
s(g133
g118
tp3501
I0
s(g111
g87
tp3502
I0
s(g28
g12
tp3503
I0
s(g94
g190
tp3504
I0
s(g139
g25
tp3505
I0
s(g56
g146
tp3506
I0
s(g51
g107
tp3507
I0
s(g12
g234
tp3508
I0
s(g178
g9
tp3509
I0
s(g114
g12
tp3510
I0
s(g77
g142
tp3511
I0
s(g23
g37
tp3512
I0
s(g295
g38
tp3513
I0
s(g61
g214
tp3514
I0
s(g164
g107
tp3515
I0
s(g40
g90
tp3516
I0
s(g43
g20
tp3517
I0
s(g35
g80
tp3518
I0
s(g90
g12
tp3519
I0
s(g122
g43
tp3520
I0
s(g74
g25
tp3521
I0
s(g25
g110
tp3522
I0
s(g107
g26
tp3523
F0.97706380242951985
s(g62
g74
tp3524
I0
s(g136
g142
tp3525
I0
s(g57
g173
tp3526
I0
s(g62
g142
tp3527
I0
s(g40
g214
tp3528
I0
s(g18
g72
tp3529
I0
s(g34
g26
tp3530
I0
s(g49
g96
tp3531
I0
s(g281
g12
tp3532
I0
s(g129
g281
tp3533
I0
s(g82
g167
tp3534
I0
s(g281
g8
tp3535
I0
s(g57
g31
tp3536
I0
s(g26
g59
tp3537
I0
s(g84
g234
tp3538
I0
s(g94
g173
tp3539
I0
s(g59
g214
tp3540
I0
s(g49
g34
tp3541
I0
s(g161
g59
tp3542
I0
s(g2
g21
tp3543
I0
s(g78
g35
tp3544
I0
s(g173
g164
tp3545
I0
s(g17
g6
tp3546
I0
s(g129
g11
tp3547
I0
s(g129
g129
tp3548
F0.086956521739130432
s(g14
g21
tp3549
I0
s(g15
g158
tp3550
I0
s(g23
g295
tp3551
I0
s(g118
g25
tp3552
I0
s(g6
g6
tp3553
F0.62605042016806722
s(g46
g74
tp3554
I0
s(g31
g38
tp3555
I0
s(g72
g40
tp3556
I0
s(g61
g17
tp3557
I0
s(g142
g57
tp3558
I0
s(g72
g88
tp3559
I0
s(g69
g136
tp3560
I0
s(g69
g133
tp3561
I0
s(g6
g133
tp3562
I0
s(g236
g118
tp3563
I0
s(g222
g122
tp3564
I0
s(g190
g105
tp3565
I0
s(g74
g124
tp3566
I0
s(g190
g45
tp3567
I0
s(g78
g90
tp3568
I0
s(g28
g94
tp3569
I0
s(g111
g145
tp3570
I0
s(g178
g49
tp3571
I0
s(g111
g38
tp3572
I0
s(g67
g281
tp3573
I0
s(g32
g84
tp3574
I0
s(g56
g14
tp3575
I0
s(g129
g164
tp3576
I0
s(g11
g65
tp3577
I0
s(g41
g35
tp3578
I0
s(g158
g88
tp3579
I0
s(g222
g148
tp3580
I0
s(g71
g102
tp3581
I0
s(g142
g21
tp3582
I0
s(g115
g222
tp3583
I0
s(g62
g78
tp3584
I0
s(g41
g45
tp3585
I0
s(g139
g67
tp3586
I0
s(g84
g78
tp3587
I0
s(g173
g35
tp3588
I0
s(g295
g17
tp3589
I0
s(g62
g37
tp3590
I0
s(g3
g102
tp3591
I0
s(g110
g94
tp3592
I0
s(g148
g139
tp3593
I0
s(g43
g5
tp3594
I0
s(g96
g102
tp3595
I0
s(g100
g91
tp3596
I0
s(g88
g40
tp3597
I0
s(g146
g91
tp3598
I0
s(g91
g87
tp3599
I0
s(g74
g15
tp3600
I0
s(g56
g281
tp3601
I0
s(g45
g102
tp3602
I0
s(g96
g122
tp3603
I0
s(g18
g234
tp3604
I0
s(g281
g74
tp3605
I0
s(g94
g12
tp3606
I0
s(g20
g114
tp3607
I0
s(g102
g65
tp3608
I0
s(g167
g31
tp3609
I0
s(g91
g78
tp3610
I0
s(g110
g26
tp3611
I0
s(g115
g167
tp3612
I0
s(g20
g87
tp3613
I0
s(g14
g100
tp3614
I0
s(g38
g12
tp3615
I0
s(g82
g72
tp3616
I0
s(g17
g25
tp3617
I0
s(g71
g34
tp3618
I0
s(g167
g178
tp3619
I0
s(g136
g87
tp3620
I0
s(g72
g78
tp3621
I0
s(g82
g222
tp3622
I0
s(g11
g20
tp3623
I0
s(g114
g2
tp3624
I0
s(g25
g23
tp3625
I0
s(g20
g31
tp3626
I0
s(g56
g139
tp3627
I0
s(g145
g164
tp3628
I0
s(g111
g62
tp3629
I0
s(g148
g72
tp3630
I0
s(g12
g96
tp3631
I0
s(g236
g136
tp3632
I0
s(g158
g158
tp3633
F0.98630136986301364
s(g91
g281
tp3634
I0
s(g51
g124
tp3635
I0
s(g82
g15
tp3636
I0
s(g190
g158
tp3637
I0
s(g107
g234
tp3638
I0
s(g295
g51
tp3639
I0
s(g32
g59
tp3640
I0
s(g110
g148
tp3641
I0
s(g62
g102
tp3642
I0
s(g295
g90
tp3643
I0
s(g77
g173
tp3644
I0
s(g41
g96
tp3645
I0
s(g88
g173
tp3646
I0
s(g69
g80
tp3647
I0
s(g214
g78
tp3648
I0
s(g18
g31
tp3649
I0
s(g35
g3
tp3650
I0
s(g111
g118
tp3651
I0
s(g178
g80
tp3652
I0
s(g5
g28
tp3653
I0
s(g234
g12
tp3654
I0
s(g45
g20
tp3655
I0
s(g90
g158
tp3656
I0
s(g115
g88
tp3657
I0
s(g124
g18
tp3658
I0
s(g23
g25
tp3659
I0
s(g56
g118
tp3660
I0
s(g26
g236
tp3661
I0
s(g80
g35
tp3662
I0
s(g105
g173
tp3663
I0
s(g178
g295
tp3664
I0
s(g96
g46
tp3665
I0
s(g161
g87
tp3666
I0
s(g20
g82
tp3667
I0
s(g281
g94
tp3668
I0
s(g59
g71
tp3669
I0
s(g77
g38
tp3670
I0
s(g69
g37
tp3671
I0
s(g133
g161
tp3672
I0
s(g56
g67
tp3673
I0
s(g111
g161
tp3674
I0
s(g139
g173
tp3675
I0
s(g281
g129
tp3676
I0
s(g190
g57
tp3677
I0
s(g43
g59
tp3678
I0
s(g84
g40
tp3679
I0
s(g31
g158
tp3680
I0
s(g40
g34
tp3681
I0
s(g77
g28
tp3682
I0
s(g129
g31
tp3683
I0
s(g96
g65
tp3684
I0
s(g80
g41
tp3685
I0
s(g153
g41
tp3686
I0
s(g111
g281
tp3687
I0
s(g77
g214
tp3688
I0
s(g45
g295
tp3689
I0
s(g62
g59
tp3690
I0
s(g23
g8
tp3691
I0
s(g190
g82
tp3692
I0
s(g139
g234
tp3693
I0
s(g43
g6
tp3694
I0
s(g115
g59
tp3695
I0
s(g59
g41
tp3696
I0
s(g37
g178
tp3697
I0
s(g72
g80
tp3698
I0
s(g74
g28
tp3699
I0
s(g272
g148
tp3700
I0
s(g173
g82
tp3701
I0
s(g153
g35
tp3702
I0
s(g82
g142
tp3703
I0
s(g14
g41
tp3704
I0
s(g167
g43
tp3705
I0
s(g35
g49
tp3706
I0
s(g57
g153
tp3707
I0
s(g80
g133
tp3708
I0
s(g167
g6
tp3709
I0
s(g59
g146
tp3710
I0
s(g105
g105
tp3711
F0.48148148148148145
s(g190
g65
tp3712
I0
s(g26
g91
tp3713
I0
s(g26
g167
tp3714
I0
s(g29
g115
tp3715
I0
s(g8
g6
tp3716
I0
s(g40
g72
tp3717
I0
s(g72
g94
tp3718
I0
s(g9
g8
tp3719
I0
s(g146
g87
tp3720
I0
s(g114
g25
tp3721
I0
s(g91
g91
tp3722
F0.5
s(g87
g15
tp3723
I0
s(g3
g18
tp3724
I0
s(g2
g146
tp3725
I0
s(g59
g178
tp3726
I0
s(g164
g148
tp3727
I0
s(g102
g3
tp3728
I0
s(g281
g107
tp3729
I0
s(g146
g142
tp3730
I0
s(g29
g90
tp3731
I0
s(g178
g164
tp3732
I0
s(g214
g8
tp3733
I0
s(g5
g236
tp3734
I0
s(g142
g74
tp3735
I0
s(g110
g133
tp3736
I0
s(g222
g82
tp3737
I0
s(g158
g146
tp3738
I0
s(g136
g56
tp3739
I0
s(g100
g214
tp3740
I0
s(g56
g114
tp3741
I0
s(g26
g69
tp3742
I0
s(g17
g91
tp3743
I0
s(g84
g21
tp3744
I0
s(g87
g71
tp3745
I0
s(g67
g37
tp3746
I0
s(g272
g272
tp3747
F0.45569620253164556
s(g25
g21
tp3748
I0
s(g74
g8
tp3749
I0
s(g65
g15
tp3750
I0
s(g190
g29
tp3751
I0
s(g43
g56
tp3752
I0
s(g234
g190
tp3753
I0
s(g51
g214
tp3754
I0
s(g164
g87
tp3755
I0
s(g136
g281
tp3756
I0
s(g6
g91
tp3757
I0
s(g11
g105
tp3758
I0
s(g67
g18
tp3759
I0
s(g3
g118
tp3760
I0
s(g236
g122
tp3761
I0
s(g90
g57
tp3762
I0
s(g173
g84
tp3763
I0
s(g105
g12
tp3764
I0
s(g295
g11
tp3765
I0
s(g110
g41
tp3766
I0
s(g5
g8
tp3767
I0
s(g43
g105
tp3768
I0
s(g34
g45
tp3769
I0
s(g82
g37
tp3770
I0
s(g71
g118
tp3771
I0
s(g12
g40
tp3772
I0
s(g114
g124
tp3773
I0
s(g46
g12
tp3774
I0
s(g91
g295
tp3775
I0
s(g145
g45
tp3776
I0
s(g20
g14
tp3777
I0
s(g88
g11
tp3778
I0
s(g67
g26
tp3779
I0
s(g110
g11
tp3780
I0
s(g173
g118
tp3781
I0
s(g122
g71
tp3782
I0
s(g6
g56
tp3783
I0
s(g25
g12
tp3784
I0
s(g43
g11
tp3785
I0
s(g164
g272
tp3786
I0
s(g26
g15
tp3787
I0
s(g281
g34
tp3788
I0
s(g46
g15
tp3789
I0
s(g82
g34
tp3790
I0
s(g12
g5
tp3791
I0
s(g272
g15
tp3792
I0
s(g49
g88
tp3793
I0
s(g96
g136
tp3794
I0
s(g56
g129
tp3795
I0
s(g53
g272
tp3796
I0
s(g111
g26
tp3797
I0
s(g136
g91
tp3798
I0
s(g5
g23
tp3799
I0
s(g28
g41
tp3800
I0
s(g145
g29
tp3801
I0
s(g20
g91
tp3802
I0
s(g59
g8
tp3803
I0
s(g139
g107
tp3804
I0
s(g118
g82
tp3805
I0
s(g57
g164
tp3806
I0
s(g31
g12
tp3807
I0
s(g38
g35
tp3808
I0
s(g26
g190
tp3809
I0
s(g57
g133
tp3810
I0
s(g9
g21
tp3811
I0
s(g71
g43
tp3812
I0
s(g80
g148
tp3813
I0
s(g145
g23
tp3814
I0
s(g18
g111
tp3815
I0
s(g61
g222
tp3816
I0
s(g295
g46
tp3817
I0
s(g6
g110
tp3818
I0
s(g57
g37
tp3819
I0
s(g41
g88
tp3820
I0
s(g115
g115
tp3821
F0.94117647058823528
s(g234
g84
tp3822
I0
s(g3
g43
tp3823
I0
s(g153
g82
tp3824
F0.99450194049159124
s(g41
g111
tp3825
I0
s(g94
g46
tp3826
I0
s(g26
g56
tp3827
I0
s(g61
g129
tp3828
I0
s(g100
g190
tp3829
I0
s(g77
g37
tp3830
I0
s(g21
g21
tp3831
F0.75079872204472842
s(g142
g11
tp3832
I0
s(g72
g6
tp3833
I0
s(g234
g51
tp3834
I0
s(g82
g77
tp3835
I0
s(g105
g18
tp3836
I0
s(g38
g3
tp3837
I0
s(g77
g234
tp3838
I0
s(g6
g3
tp3839
I0
s(g57
g145
tp3840
I0
s(g295
g32
tp3841
I0
s(g111
g25
tp3842
I0
s(g5
g14
tp3843
I0
s(g32
g28
tp3844
I0
s(g53
g105
tp3845
I0
s(g190
g94
tp3846
I0
s(g129
g145
tp3847
I0
s(g222
g236
tp3848
I0
s(g148
g45
tp3849
I0
s(g15
g124
tp3850
I0
s(g96
g37
tp3851
I0
s(g78
g43
tp3852
I0
s(g37
g45
tp3853
I0
s(g72
g148
tp3854
I0
s(g45
g28
tp3855
I0
s(g234
g88
tp3856
I0
s(g59
g26
tp3857
I0
s(g31
g91
tp3858
I0
s(g88
g65
tp3859
I0
s(g62
g105
tp3860
I0
s(g178
g37
tp3861
I0
s(g31
g295
tp3862
I0
s(g28
g124
tp3863
I0
s(g80
g94
tp3864
I0
s(g20
g23
tp3865
I0
s(g31
g234
tp3866
I0
s(g65
g18
tp3867
I0
s(g8
g77
tp3868
I0
s(g133
g164
tp3869
I0
s(g161
g88
tp3870
I0
s(g78
g87
tp3871
I0
s(g37
g100
tp3872
I0
s(g57
g23
tp3873
I0
s(g2
g26
tp3874
I0
s(g222
g272
tp3875
I0
s(g107
g87
tp3876
I0
s(g20
g158
tp3877
I0
s(g2
g153
tp3878
I0
s(g133
g84
tp3879
I0
s(g28
g145
tp3880
I0
s(g28
g38
tp3881
I0
s(g129
g222
tp3882
I0
s(g82
g107
tp3883
I0
s(g78
g31
tp3884
I0
s(g139
g115
tp3885
I0
s(g41
g214
tp3886
I0
s(g37
g145
tp3887
I0
s(g31
g43
tp3888
I0
s(g14
g84
tp3889
I0
s(g23
g100
tp3890
I0
s(g62
g53
tp3891
I0
s(g2
g18
tp3892
I0
s(g37
g139
tp3893
I0
s(g61
g90
tp3894
I0
s(g91
g46
tp3895
I0
s(g84
g148
tp3896
I0
s(g111
g53
tp3897
I0
s(g62
g17
tp3898
I0
s(g91
g67
tp3899
I0
s(g107
g21
tp3900
I0
s(g15
g56
tp3901
I0
s(g145
g110
tp3902
I0
s(g281
g28
tp3903
I0
s(g139
g18
tp3904
I0
s(g222
g2
tp3905
I0
s(g57
g45
tp3906
I0
s(g67
g69
tp3907
I0
s(g38
g114
tp3908
I0
s(g46
g28
tp3909
I0
s(g11
g38
tp3910
I0
s(g45
g65
tp3911
I0
s(g37
g12
tp3912
I0
s(g11
g67
tp3913
I0
s(g26
g148
tp3914
I0
s(g74
g90
tp3915
I0
s(g87
g20
tp3916
I0
s(g222
g145
tp3917
I0
s(g67
g146
tp3918
I0
s(g41
g87
tp3919
I0
s(g102
g90
tp3920
I0
s(g105
g43
tp3921
I0
s(g2
g100
tp3922
I0
s(g136
g173
tp3923
I0
s(g236
g18
tp3924
I0
s(g110
g153
tp3925
I0
s(g78
g41
tp3926
I0
s(g102
g9
tp3927
I0
s(g77
g236
tp3928
I0
s(g74
g46
tp3929
I0
s(g71
g3
tp3930
I0
s(g28
g62
tp3931
I0
s(g41
g80
tp3932
I0
s(g167
g56
tp3933
I0
s(g71
g295
tp3934
I0
s(g222
g102
tp3935
I0
s(g12
g67
tp3936
I0
s(g51
g49
tp3937
I0
s(g32
g281
tp3938
I0
s(g12
g110
tp3939
I0
s(g114
g62
tp3940
I0
s(g23
g26
tp3941
I0
s(g145
g107
tp3942
I0
s(g11
g11
tp3943
F0.75033721258508723
s(g84
g69
tp3944
I0
s(g21
g67
tp3945
I0
s(g82
g61
tp3946
I0
s(g49
g94
tp3947
I0
s(g173
g31
tp3948
I0
s(g142
g82
tp3949
I0
s(g164
g12
tp3950
I0
s(g124
g71
tp3951
I0
s(g142
g28
tp3952
I0
s(g91
g82
tp3953
I0
s(g100
g32
tp3954
I0
s(g111
g46
tp3955
I0
s(g88
g122
tp3956
I0
s(g122
g105
tp3957
I0
s(g28
g118
tp3958
I0
s(g15
g96
tp3959
I0
s(g148
g146
tp3960
I0
s(g142
g214
tp3961
I0
s(g31
g9
tp3962
I0
s(g26
g46
tp3963
I0
s(g115
g71
tp3964
I0
s(g14
g173
tp3965
I0
s(g167
g26
tp3966
I0
s(g281
g148
tp3967
I0
s(g6
g124
tp3968
I0
s(g9
g29
tp3969
I0
s(g142
g118
tp3970
I0
s(g21
g59
tp3971
I0
s(g14
g82
tp3972
I0
s(g146
g49
tp3973
I0
s(g12
g136
tp3974
I0
s(g35
g236
tp3975
I0
s(g111
g78
tp3976
I0
s(g78
g94
tp3977
I0
s(g167
g45
tp3978
I0
s(g158
g173
tp3979
I0
s(g107
g114
tp3980
I0
s(g20
g2
tp3981
I0
s(g35
g25
tp3982
I0
s(g153
g161
tp3983
I0
s(g32
g74
tp3984
I0
s(g80
g110
tp3985
I0
s(g94
g20
tp3986
I0
s(g21
g74
tp3987
I0
s(g114
g43
tp3988
I0
s(g84
g72
tp3989
I0
s(g61
g9
tp3990
I0
s(g67
g87
tp3991
I0
s(g107
g145
tp3992
I0
s(g38
g118
tp3993
I0
s(g190
g35
tp3994
I0
s(g234
g35
tp3995
I0
s(g41
g161
tp3996
I0
s(g87
g5
tp3997
I0
s(g74
g114
tp3998
I0
s(g178
g91
tp3999
I0
s(g65
g62
tp4000
I0
s(g118
g115
tp4001
I0
s(g45
g67
tp4002
I0
s(g2
g91
tp4003
F0.10714285714285714
s(g28
g133
tp4004
I0
s(g74
g3
tp4005
I0
s(g118
g133
tp4006
I0
s(g222
g25
tp4007
I0
s(g114
g96
tp4008
I0
s(g18
g6
tp4009
I0
s(g53
g17
tp4010
I0
s(g74
g295
tp4011
I0
s(g32
g67
tp4012
I0
s(g46
g17
tp4013
I0
s(g62
g77
tp4014
I0
s(g65
g69
tp4015
I0
s(g124
g90
tp4016
I0
s(g41
g65
tp4017
I0
s(g32
g148
tp4018
F0.9947222470703998
s(g6
g25
tp4019
I0
s(g26
g133
tp4020
I0
s(g190
g59
tp4021
I0
s(g71
g158
tp4022
I0
s(g65
g146
tp4023
I0
s(g20
g153
tp4024
I0
s(g56
g20
tp4025
I0
s(g12
g59
tp4026
I0
s(g145
g222
tp4027
I0
s(g77
g26
tp4028
I0
s(g145
g61
tp4029
I0
s(g90
g3
tp4030
I0
s(g5
g12
tp4031
I0
s(g281
g65
tp4032
I0
s(g100
g67
tp4033
I0
s(g14
g167
tp4034
I0
s(g45
g107
tp4035
I0
s(g65
g78
tp4036
I0
s(g61
g14
tp4037
I0
s(g80
g74
tp4038
I0
s(g61
g161
tp4039
I0
s(g190
g18
tp4040
I0
s(g5
g15
tp4041
F0.99503206575738412
s(g38
g222
tp4042
I0
s(g129
g62
tp4043
I0
s(g77
g18
tp4044
I0
s(g18
g29
tp4045
I0
s(g38
g21
tp4046
I0
s(g2
g14
tp4047
I0
s(g118
g34
tp4048
I0
s(g11
g96
tp4049
I0
s(g78
g148
tp4050
I0
s(g173
g17
tp4051
I0
s(g222
g124
tp4052
I0
s(g102
g37
tp4053
I0
s(g214
g167
tp4054
I0
s(g148
g20
tp4055
I0
s(g167
g11
tp4056
I0
s(g178
g272
tp4057
I0
s(g62
g107
tp4058
I0
s(g41
g178
tp4059
I0
s(g25
g37
tp4060
I0
s(g32
g111
tp4061
I0
s(g122
g173
tp4062
I0
s(g84
g84
tp4063
F0.8633782094888548
s(g5
g124
tp4064
I0
s(g148
g57
tp4065
I0
s(g114
g8
tp4066
I0
s(g115
g161
tp4067
I0
s(g105
g11
tp4068
I0
s(g124
g94
tp4069
I0
s(g161
g2
tp4070
I0
s(g17
g12
tp4071
I0
s(g178
g18
tp4072
I0
s(g87
g59
tp4073
I0
s(g122
g139
tp4074
I0
s(g2
g236
tp4075
I0
s(g136
g114
tp4076
I0
s(g77
g94
tp4077
I0
s(g114
g146
tp4078
I0
s(g21
g15
tp4079
I0
s(g146
g88
tp4080
I0
s(g133
g146
tp4081
I0
s(g14
g35
tp4082
I0
s(g23
g56
tp4083
I0
s(g43
g178
tp4084
I0
s(g25
g153
tp4085
I0
s(g57
g158
tp4086
I0
s(g65
g46
tp4087
I0
s(g71
g53
tp4088
I0
s(g87
g6
tp4089
I0
s(g67
g17
tp4090
I0
s(g136
g133
tp4091
I0
s(g295
g164
tp4092
I0
s(g190
g118
tp4093
I0
s(g46
g105
tp4094
I0
s(g21
g110
tp4095
I0
s(g72
g129
tp4096
I0
s(g29
g9
tp4097
I0
s(g295
g178
tp4098
I0
s(g41
g105
tp4099
I0
s(g234
g45
tp4100
I0
s(g94
g133
tp4101
I0
s(g41
g71
tp4102
I0
s(g18
g14
tp4103
I0
s(g158
g14
tp4104
I0
s(g67
g57
tp4105
I0
s(g88
g94
tp4106
I0
s(g295
g31
tp4107
I0
s(g34
g102
tp4108
I0
s(g56
g158
tp4109
I0
s(g88
g72
tp4110
I0
s(g17
g29
tp4111
I0
s(g173
g37
tp4112
I0
s(g136
g96
tp4113
I0
s(g2
g9
tp4114
I0
s(g5
g25
tp4115
I0
s(g142
g34
tp4116
I0
s(g31
g153
tp4117
I0
s(g15
g222
tp4118
I0
s(g71
g61
tp4119
I0
s(g72
g57
tp4120
I0
s(g62
g61
tp4121
I0
s(g62
g25
tp4122
I0
s(g178
g129
tp4123
I0
s(g164
g28
tp4124
I0
s(g178
g35
tp4125
I0
s(g45
g122
tp4126
I0
s(g173
g72
tp4127
I0
s(g5
g190
tp4128
I0
s(g41
g102
tp4129
I0
s(g87
g2
tp4130
I0
s(g136
g107
tp4131
I0
s(g78
g96
tp4132
I0
s(g78
g100
tp4133
I0
s(g8
g161
tp4134
I0
s(g100
g105
tp4135
I0
s(g178
g142
tp4136
I0
s(g115
g18
tp4137
I0
s(g2
g234
tp4138
I0
s(g158
g32
tp4139
I0
s(g87
g45
tp4140
I0
s(g38
g34
tp4141
I0
s(g20
g38
tp4142
I0
s(g43
g107
tp4143
I0
s(g61
g153
tp4144
I0
s(g20
g37
tp4145
I0
s(g145
g158
tp4146
I0
s(g78
g133
tp4147
I0
s(g29
g72
tp4148
I0
s(g133
g173
tp4149
I0
s(g25
g45
tp4150
I0
s(g118
g61
tp4151
I0
s(g18
g41
tp4152
I0
s(g34
g23
tp4153
I0
s(g35
g161
tp4154
I0
s(g96
g62
tp4155
I0
s(g23
g222
tp4156
I0
s(g69
g88
tp4157
I0
s(g34
g57
tp4158
I0
s(g34
g37
tp4159
I0
s(g122
g12
tp4160
I0
s(g11
g173
tp4161
I0
s(g87
g94
tp4162
I0
s(g49
g100
tp4163
I0
s(g74
g53
tp4164
I0
s(g40
g11
tp4165
I0
s(g23
g41
tp4166
I0
s(g236
g178
tp4167
I0
s(g129
g46
tp4168
I0
s(g236
g167
tp4169
I0
s(g9
g82
tp4170
I0
s(g272
g46
tp4171
I0
s(g71
g114
tp4172
I0
s(g107
g15
tp4173
I0
s(g38
g158
tp4174
I0
s(g234
g281
tp4175
I0
s(g94
g146
tp4176
I0
s(g236
g74
tp4177
I0
s(g56
g190
tp4178
I0
s(g133
g72
tp4179
I0
s(g2
g136
tp4180
I0
s(g102
g40
tp4181
I0
s(g57
g129
tp4182
I0
s(g80
g59
tp4183
I0
s(g124
g167
tp4184
I0
s(g49
g45
tp4185
I0
s(g11
g21
tp4186
I0
s(g29
g31
tp4187
I0
s(g111
g65
tp4188
I0
s(g100
g222
tp4189
I0
s(g23
g35
tp4190
I0
s(g153
g115
tp4191
I0
s(g37
g102
tp4192
I0
s(g100
g72
tp4193
I0
s(g49
g32
tp4194
I0
s(g9
g148
tp4195
I0
s(g20
g115
tp4196
I0
s(g164
g34
tp4197
I0
s(g67
g59
tp4198
I0
s(g129
g9
tp4199
I0
s(g114
g145
tp4200
I0
s(g88
g5
tp4201
I0
s(g38
g74
tp4202
I0
s(g164
g51
tp4203
I0
s(g161
g56
tp4204
I0
s(g29
g114
tp4205
I0
s(g11
g214
tp4206
I0
s(g139
g129
tp4207
I0
s(g178
g40
tp4208
I0
s(g46
g78
tp4209
I0
s(g164
g29
tp4210
I0
s(g153
g136
tp4211
I0
s(g82
g91
tp4212
I0
s(g5
g37
tp4213
I0
s(g124
g114
tp4214
I0
s(g142
g61
tp4215
I0
s(g190
g234
tp4216
I0
s(g158
g18
tp4217
I0
s(g34
g161
tp4218
I0
s(g62
g41
tp4219
I0
s(g45
g72
tp4220
I0
s(g234
g74
tp4221
I0
s(g31
g62
tp4222
I0
s(g5
g20
tp4223
I0
s(g222
g71
tp4224
I0
s(g142
g148
tp4225
I0
s(g37
g122
tp4226
I0
s(g272
g51
tp4227
I0
s(g17
g9
tp4228
I0
s(g272
g40
tp4229
I0
s(g38
g178
tp4230
I0
s(g35
g15
tp4231
I0
s(g88
g29
tp4232
I0
s(g133
g87
tp4233
I0
s(g236
g80
tp4234
I0
s(g72
g122
tp4235
I0
s(g146
g80
tp4236
I0
s(g87
g122
tp4237
I0
s(g80
g49
tp4238
I0
s(g56
g272
tp4239
I0
s(g34
g11
tp4240
I0
s(g46
g77
tp4241
I0
s(g14
g158
tp4242
I0
s(g102
g148
tp4243
I0
s(g222
g41
tp4244
I0
s(g65
g14
tp4245
I0
s(g91
g12
tp4246
I0
s(g115
g102
tp4247
I0
s(g77
g272
tp4248
I0
s(g67
g23
tp4249
I0
s(g96
g78
tp4250
I0
s(g31
g146
tp4251
I0
s(g88
g272
tp4252
I0
s(g129
g72
tp4253
I0
s(g90
g146
tp4254
I0
s(g38
g17
tp4255
I0
s(g32
g222
tp4256
I0
s(g190
g12
tp4257
I0
s(g281
g20
tp4258
I0
s(g148
g145
tp4259
I0
s(g96
g295
tp4260
I0
s(g222
g146
tp4261
I0
s(g74
g71
tp4262
I0
s(g34
g65
tp4263
I0
s(g11
g57
tp4264
I0
s(g91
g34
tp4265
I0
s(g82
g65
tp4266
I0
s(g82
g49
tp4267
I0
s(g145
g148
tp4268
I0
s(g272
g115
tp4269
I0
s(g118
g100
tp4270
I0
s(g29
g11
tp4271
I0
s(g28
g100
tp4272
I0
s(g105
g272
tp4273
I0
s(g34
g51
tp4274
I0
s(g35
g46
tp4275
I0
s(g190
g80
tp4276
I0
s(g222
g14
tp4277
I0
s(g49
g38
tp4278
I0
s(g26
g34
tp4279
I0
s(g3
g178
tp4280
I0
s(g115
g57
tp4281
I0
s(g61
g105
tp4282
I0
s(g111
g20
tp4283
I0
s(g71
g49
tp4284
I0
s(g2
g69
tp4285
I0
s(g173
g15
tp4286
I0
s(g129
g173
tp4287
I0
s(g118
g145
tp4288
I0
s(g21
g6
tp4289
I0
s(g9
g88
tp4290
I0
s(g9
g236
tp4291
I0
s(g272
g136
tp4292
I0
s(g3
g8
tp4293
I0
s(g61
g31
tp4294
I0
s(g20
g56
tp4295
I0
s(g23
g82
tp4296
I0
s(g100
g139
tp4297
I0
s(g20
g148
tp4298
I0
s(g62
g46
tp4299
I0
s(g161
g43
tp4300
I0
s(g49
g74
tp4301
I0
s(g78
g17
tp4302
I0
s(g20
g32
tp4303
I0
s(g40
g91
tp4304
I0
s(g136
g21
tp4305
I0
s(g25
g145
tp4306
I0
s(g57
g15
tp4307
I0
s(g96
g29
tp4308
I0
s(g234
g21
tp4309
I0
s(g146
g35
tp4310
I0
s(g136
g18
tp4311
I0
s(g51
g40
tp4312
F0.97573619193952321
s(g8
g15
tp4313
I0
s(g2
g295
tp4314
I0
s(g178
g178
tp4315
F0.76519076358845628
s(g26
g77
tp4316
I0
s(g107
g158
tp4317
I0
s(g77
g15
tp4318
I0
s(g110
g87
tp4319
I0
s(g25
g158
tp4320
I0
s(g2
g62
tp4321
I0
s(g71
g146
tp4322
I0
s(g67
g12
tp4323
I0
s(g2
g96
tp4324
I0
s(g26
g272
tp4325
I0
s(g17
g222
tp4326
I0
s(g146
g8
tp4327
I0
s(g23
g111
tp4328
I0
s(g71
g139
tp4329
I0
s(g2
g148
tp4330
I0
s(g107
g214
tp4331
I0
s(g14
g124
tp4332
I0
s(g94
g118
tp4333
I0
s(g111
g173
tp4334
I0
s(g53
g31
tp4335
F0.99411804938102732
s(g173
g32
tp4336
I0
s(g133
g94
tp4337
I0
s(g272
g80
tp4338
I0
s(g272
g2
tp4339
I0
s(g6
g222
tp4340
I0
s(g49
g67
tp4341
I0
s(g90
g71
tp4342
I0
s(g190
g32
tp4343
I0
s(g139
g12
tp4344
I0
s(g77
g6
tp4345
I0
s(g222
g8
tp4346
I0
s(g222
g49
tp4347
I0
s(g136
g118
tp4348
I0
s(g21
g11
tp4349
I0
s(g62
g146
tp4350
I0
s(g190
g164
tp4351
I0
s(g35
g122
tp4352
I0
s(g2
g133
tp4353
I0
s(g43
g173
tp4354
I0
s(g14
g236
tp4355
I0
s(g31
g49
tp4356
I0
s(g272
g173
tp4357
I0
s(g164
g35
tp4358
I0
s(g142
g40
tp4359
I0
s(g15
g29
tp4360
I0
s(g190
g87
tp4361
I0
s(g15
g94
tp4362
I0
s(g28
g23
tp4363
I0
s(g88
g115
tp4364
I0
s(g84
g281
tp4365
I0
s(g111
g142
tp4366
I0
s(g69
g32
tp4367
I0
s(g45
g146
tp4368
I0
s(g272
g41
tp4369
I0
s(g28
g136
tp4370
I0
s(g129
g32
tp4371
I0
s(g281
g25
tp4372
I0
s(g14
g29
tp4373
I0
s(g158
g78
tp4374
I0
s(g56
g5
tp4375
I0
s(g164
g2
tp4376
I0
s(g190
g38
tp4377
I0
s(g12
g148
tp4378
I0
s(g37
g136
tp4379
I0
s(g111
g67
tp4380
I0
s(g110
g129
tp4381
I0
s(g38
g142
tp4382
I0
s(g100
g96
tp4383
I0
s(g35
g8
tp4384
I0
s(g3
g91
tp4385
I0
s(g72
g295
tp4386
I0
s(g20
g122
tp4387
I0
s(g94
g234
tp4388
I0
s(g17
g153
tp4389
I0
s(g67
g71
tp4390
I0
s(g164
g173
tp4391
I0
s(g8
g72
tp4392
I0
s(g272
g35
tp4393
I0
s(g25
g118
tp4394
I0
s(g31
g34
tp4395
I0
s(g145
g41
tp4396
I0
s(g133
g14
tp4397
I0
s(g133
g62
tp4398
I0
s(g100
g23
tp4399
I0
s(g146
g15
tp4400
I0
s(g25
g61
tp4401
I0
s(g111
g69
tp4402
I0
s(g87
g18
tp4403
I0
s(g236
g124
tp4404
I0
s(g69
g40
tp4405
I0
s(g57
g190
tp4406
I0
s(g49
g41
tp4407
I0
s(g2
g272
tp4408
I0
s(g105
g72
tp4409
I0
s(g107
g17
tp4410
I0
s(g136
g43
tp4411
I0
s(g148
g67
tp4412
I0
s(g56
g35
tp4413
I0
s(g31
g94
tp4414
I0
s(g41
g62
tp4415
I0
s(g82
g114
tp4416
I0
s(g90
g67
tp4417
I0
s(g161
g178
tp4418
I0
s(g87
g96
tp4419
I0
s(g87
g26
tp4420
I0
s(g45
g234
tp4421
F0.99412886008387336
s(g45
g90
tp4422
I0
s(g21
g14
tp4423
I0
s(g96
g53
tp4424
I0
s(g142
g3
tp4425
I0
s(g59
g272
tp4426
I0
s(g96
g90
tp4427
I0
s(g51
g84
tp4428
I0
s(g37
g281
tp4429
I0
s(g12
g80
tp4430
I0
s(g110
g9
tp4431
I0
s(g67
g190
tp4432
I0
s(g107
g2
tp4433
I0
s(g14
g28
tp4434
I0
s(g26
g61
tp4435
I0
s(g153
g272
tp4436
I0
s(g167
g139
tp4437
I0
s(g78
g129
tp4438
I0
s(g272
g18
tp4439
I0
s(g91
g214
tp4440
I0
s(g161
g84
tp4441
I0
s(g236
g234
tp4442
I0
s(g190
g295
tp4443
I0
s(g133
g139
tp4444
I0
s(g77
g90
tp4445
I0
s(g87
g148
tp4446
I0
s(g102
g14
tp4447
I0
s(g5
g34
tp4448
I0
s(g78
g146
tp4449
I0
s(g146
g272
tp4450
I0
s(g34
g3
tp4451
I0
s(g234
g96
tp4452
I0
s(g78
g6
tp4453
I0
s(g49
g190
tp4454
I0
s(g23
g90
tp4455
I0
s(g34
g80
tp4456
I0
s(g57
g29
tp4457
I0
s(g59
g2
tp4458
I0
s(g2
g71
tp4459
I0
s(g51
g234
tp4460
I0
s(g114
g11
tp4461
I0
s(g49
g87
tp4462
F0.98387993329627577
s(g124
g214
tp4463
I0
s(g29
g88
tp4464
I0
s(g49
g84
tp4465
I0
s(g139
g14
tp4466
I0
s(g65
g3
tp4467
I0
s(g115
g38
tp4468
I0
s(g78
g178
tp4469
I0
s(g46
g129
tp4470
I0
s(g122
g153
tp4471
I0
s(g28
g178
tp4472
I0
s(g46
g20
tp4473
I0
s(g35
g51
tp4474
I0
s(g6
g40
tp4475
I0
s(g214
g102
tp4476
I0
s(g146
g190
tp4477
I0
s(g146
g236
tp4478
I0
s(g45
g37
tp4479
I0
s(g2
g53
tp4480
I0
s(g281
g11
tp4481
I0
s(g12
g12
tp4482
F0.93333333333333335
s(g107
g136
tp4483
I0
s(g11
g236
tp4484
I0
s(g118
g234
tp4485
I0
s(g69
g111
tp4486
I0
s(g80
g222
tp4487
I0
s(g38
g65
tp4488
I0
s(g41
g234
tp4489
I0
s(g145
g6
tp4490
I0
s(g87
g72
tp4491
I0
s(g133
g111
tp4492
I0
s(g5
g77
tp4493
I0
s(g94
g25
tp4494
I0
s(g82
g53
tp4495
I0
s(g43
g23
tp4496
I0
s(g51
g11
tp4497
I0
s(g29
g14
tp4498
I0
s(g53
g43
tp4499
I0
s(g161
g51
tp4500
I0
s(g26
g158
tp4501
I0
s(g111
g153
tp4502
I0
s(g18
g25
tp4503
I0
s(g21
g45
tp4504
I0
s(g34
g281
tp4505
I0
s(g34
g84
tp4506
I0
s(g67
g45
tp4507
I0
s(g40
g6
tp4508
I0
s(g69
g114
tp4509
I0
s(g20
g67
tp4510
I0
s(g295
g107
tp4511
I0
s(g88
g6
tp4512
I0
s(g129
g136
tp4513
I0
s(g105
g23
tp4514
I0
s(g6
g41
tp4515
I0
s(g84
g31
tp4516
I0
s(g102
g49
tp4517
I0
s(g236
g107
tp4518
I0
s(g43
g72
tp4519
I0
s(g18
g100
tp4520
I0
s(g118
g11
tp4521
I0
s(g31
g77
tp4522
I0
s(g129
g67
tp4523
I0
s(g34
g14
tp4524
I0
s(g56
g6
tp4525
I0
s(g110
g53
tp4526
I0
s(g142
g222
tp4527
I0
s(g158
g28
tp4528
I0
s(g40
g69
tp4529
I0
s(g148
g122
tp4530
I0
s(g100
g46
tp4531
I0
s(g178
g11
tp4532
I0
s(g146
g46
tp4533
I0
s(g124
g82
tp4534
I0
s(g72
g161
tp4535
I0
s(g100
g40
tp4536
I0
s(g72
g56
tp4537
I0
s(g234
g295
tp4538
I0
s(g28
g80
tp4539
I0
s(g20
g18
tp4540
I0
s(g129
g51
tp4541
I0
s(g90
g49
tp4542
I0
s(g23
g2
tp4543
I0
s(g11
g59
tp4544
I0
s(g29
g94
tp4545
I0
s(g8
g158
tp4546
I0
s(g69
g129
tp4547
I0
s(g57
g236
tp4548
I0
s(g9
g145
tp4549
I0
s(g72
g115
tp4550
I0
s(g133
g222
tp4551
I0
s(g34
g41
tp4552
I0
s(g17
g14
tp4553
I0
s(g28
g173
tp4554
I0
s(g28
g96
tp4555
I0
s(g74
g11
tp4556
I0
s(g20
g77
tp4557
I0
s(g91
g164
tp4558
I0
s(g72
g114
tp4559
I0
s(g34
g158
tp4560
F0.97054982527265055
s(g80
g100
tp4561
I0
s(g80
g146
tp4562
I0
s(g38
g87
tp4563
I0
s(g142
g56
tp4564
I0
s(g23
g77
tp4565
I0
s(g78
g110
tp4566
F0.83466928154185405
s(g20
g57
tp4567
I0
s(g94
g295
tp4568
I0
s(g91
g148
tp4569
I0
s(g146
g20
tp4570
I0
s(g69
g11
tp4571
F0.99134539732494098
s(g2
g2
tp4572
F0.99796344498955958
s(g32
g6
tp4573
I0
s(g14
g46
tp4574
I0
s(g35
g111
tp4575
I0
s(g17
g3
tp4576
I0
s(g222
g142
tp4577
I0
s(g161
g72
tp4578
I0
s(g80
g178
tp4579
I0
s(g35
g88
tp4580
I0
s(g129
g105
tp4581
I0
s(g56
g153
tp4582
I0
s(g61
g133
tp4583
I0
s(g21
g153
tp4584
I0
s(g74
g23
tp4585
I0
s(g118
g15
tp4586
I0
s(g43
g78
tp4587
I0
s(g3
g124
tp4588
I0
s(g11
g145
tp4589
I0
s(g136
g53
tp4590
I0
s(g51
g158
tp4591
I0
s(g67
g29
tp4592
I0
s(g272
g129
tp4593
I0
s(g38
g56
tp4594
I0
s(g53
g14
tp4595
I0
s(g107
g37
tp4596
I0
s(g148
g110
tp4597
I0
s(g45
g74
tp4598
I0
s(g53
g94
tp4599
I0
s(g105
g236
tp4600
I0
s(g23
g71
tp4601
I0
s(g110
g40
tp4602
I0
s(g72
g164
tp4603
I0
s(g281
g173
tp4604
I0
s(g91
g26
tp4605
I0
s(g91
g96
tp4606
I0
s(g281
g51
tp4607
I0
s(g139
g222
tp4608
I0
s(g34
g25
tp4609
I0
s(g122
g5
tp4610
I0
s(g34
g53
tp4611
I0
s(g82
g71
tp4612
I0
s(g158
g90
tp4613
I0
s(g91
g41
tp4614
I0
s(g38
g28
tp4615
I0
s(g32
g272
tp4616
I0
s(g107
g40
tp4617
I0
s(g129
g190
tp4618
I0
s(g35
g78
tp4619
I0
s(g88
g3
tp4620
I0
s(g25
g295
tp4621
I0
s(g57
g56
tp4622
I0
s(g87
g87
tp4623
F0.57746478873239437
s(g100
g31
tp4624
I0
s(g122
g41
tp4625
I0
s(g17
g49
tp4626
I0
s(g94
g69
tp4627
I0
s(g94
g49
tp4628
I0
s(g53
g87
tp4629
I0
s(g28
g122
tp4630
I0
s(g12
g114
tp4631
I0
s(g11
g5
tp4632
I0
s(g41
g32
tp4633
I0
s(g78
g122
tp4634
I0
s(g46
g46
tp4635
F0.5
s(g18
g78
tp4636
I0
s(g62
g148
tp4637
I0
s(g56
g74
tp4638
I0
s(g167
g295
tp4639
I0
s(g173
g281
tp4640
I0
s(g18
g59
tp4641
I0
s(g178
g122
tp4642
I0
s(g6
g107
tp4643
I0
s(g115
g105
tp4644
I0
s(g35
g84
tp4645
I0
s(g31
g118
tp4646
I0
s(g6
g11
tp4647
I0
s(g26
g129
tp4648
I0
s(g74
g43
tp4649
I0
s(g236
g72
tp4650
I0
s(g41
g94
tp4651
I0
s(g295
g25
tp4652
I0
s(g32
g2
tp4653
I0
s(g236
g100
tp4654
I0
s(g84
g161
tp4655
I0
s(g2
g129
tp4656
I0
s(g158
g15
tp4657
I0
s(g161
g34
tp4658
I0
s(g78
g105
tp4659
I0
s(g29
g87
tp4660
I0
s(g214
g17
tp4661
I0
s(g178
g173
tp4662
I0
s(g25
g124
tp4663
I0
s(g77
g222
tp4664
I0
s(g3
g114
tp4665
I0
s(g8
g69
tp4666
I0
s(g122
g272
tp4667
I0
s(g14
g164
tp4668
I0
s(g236
g145
tp4669
I0
s(g56
g38
tp4670
I0
s(g32
g122
tp4671
I0
s(g25
g6
tp4672
I0
s(g45
g8
tp4673
I0
s(g45
g114
tp4674
I0
s(g57
g136
tp4675
I0
s(g32
g41
tp4676
I0
s(g3
g133
tp4677
I0
s(g222
g281
tp4678
I0
s(g107
g80
tp4679
I0
s(g139
g100
tp4680
I0
s(g88
g38
tp4681
I0
s(g272
g167
tp4682
I0
s(g222
g77
tp4683
I0
s(g38
g59
tp4684
I0
s(g40
g38
tp4685
I0
s(g2
g94
tp4686
I0
s(g37
g9
tp4687
I0
s(g6
g77
tp4688
I0
s(g153
g178
tp4689
I0
s(g148
g190
tp4690
I0
s(g105
g14
tp4691
I0
s(g167
g90
tp4692
I0
s(g115
g41
tp4693
I0
s(g3
g96
tp4694
I0
s(g20
g146
tp4695
I0
s(g8
g28
tp4696
I0
s(g124
g15
tp4697
I0
s(g161
g77
tp4698
I0
s(g6
g272
tp4699
I0
s(g105
g167
tp4700
I0
s(g107
g31
tp4701
I0
s(g40
g67
tp4702
I0
s(g234
g236
tp4703
I0
s(g80
g57
tp4704
I0
s(g28
g17
tp4705
I0
s(g295
g12
tp4706
I0
s(g74
g65
tp4707
I0
s(g3
g107
tp4708
I0
s(g145
g2
tp4709
I0
s(g38
g111
tp4710
I0
s(g167
g14
tp4711
I0
s(g46
g67
tp4712
I0
s(g71
g136
tp4713
I0
s(g12
g214
tp4714
I0
s(g148
g61
tp4715
I0
s(g57
g49
tp4716
I0
s(g20
g178
tp4717
I0
s(g88
g167
tp4718
I0
s(g12
g164
tp4719
I0
s(g35
g41
tp4720
I0
s(g90
g18
tp4721
I0
s(g110
g65
tp4722
I0
s(g77
g49
tp4723
I0
s(g173
g146
tp4724
I0
s(g77
g87
tp4725
I0
s(g71
g161
tp4726
I0
s(g124
g12
tp4727
I0
s(g122
g87
tp4728
I0
s(g34
g272
tp4729
I0
s(g222
g59
tp4730
I0
s(g37
g94
tp4731
I0
s(g96
g31
tp4732
I0
s(g82
g56
tp4733
I0
s(g3
g164
tp4734
I0
s(g295
g29
tp4735
I0
s(g94
g29
tp4736
I0
s(g9
g164
tp4737
I0
s(g272
g61
tp4738
I0
s(g71
g77
tp4739
I0
s(g46
g295
tp4740
I0
s(g59
g67
tp4741
I0
s(g87
g34
tp4742
F0.94841087056655915
s(g96
g87
tp4743
I0
s(g139
g77
tp4744
I0
s(g5
g145
tp4745
I0
s(g272
g23
tp4746
I0
s(g78
g67
tp4747
I0
s(g2
g82
tp4748
I0
s(g35
g139
tp4749
I0
s(g67
g56
tp4750
I0
s(g61
g25
tp4751
I0
s(g124
g69
tp4752
I0
s(g34
g236
tp4753
I0
s(g59
g51
tp4754
I0
s(g105
g80
tp4755
I0
s(g110
g146
tp4756
I0
s(g100
g74
tp4757
I0
s(g62
g272
tp4758
I0
s(g23
g69
tp4759
I0
s(g67
g105
tp4760
I0
s(g32
g49
tp4761
I0
s(g84
g65
tp4762
F0.96224181434061962
s(g29
g190
tp4763
I0
s(g214
g214
tp4764
F0.66666666666666663
s(g178
g46
tp4765
I0
s(g65
g21
tp4766
I0
s(g178
g102
tp4767
I0
s(g87
g14
tp4768
I0
s(g118
g59
tp4769
I0
s(g5
g178
tp4770
I0
s(g80
g43
tp4771
I0
s(g38
g129
tp4772
I0
s(g26
g222
tp4773
I0
s(g11
g164
tp4774
I0
s(g59
g88
tp4775
I0
s(g43
g142
tp4776
I0
s(g8
g110
tp4777
I0
s(g167
g107
tp4778
I0
s(g133
g57
tp4779
I0
s(g61
g51
tp4780
I0
s(g29
g236
tp4781
I0
s(g87
g77
tp4782
I0
s(g5
g272
tp4783
I0
s(g139
g46
tp4784
I0
s(g178
g71
tp4785
I0
s(g17
g142
tp4786
I0
s(g9
g71
tp4787
I0
s(g78
g139
tp4788
I0
s(g129
g91
tp4789
I0
s(g173
g178
tp4790
I0
s(g129
g94
tp4791
I0
s(g72
g214
tp4792
I0
s(g31
g164
tp4793
I0
s(g14
g111
tp4794
I0
s(g84
g114
tp4795
I0
s(g105
g107
tp4796
I0
s(g133
g12
tp4797
I0
s(g25
g133
tp4798
I0
s(g6
g142
tp4799
I0
s(g122
g234
tp4800
I0
s(g23
g102
tp4801
I0
s(g71
g129
tp4802
I0
s(g8
g115
tp4803
I0
s(g84
g20
tp4804
I0
s(g20
g110
tp4805
I0
s(g59
g14
tp4806
I0
s(g236
g3
tp4807
I0
s(g148
g90
tp4808
I0
s(g161
g35
tp4809
I0
s(g100
g26
tp4810
I0
s(g142
g153
tp4811
I0
s(g88
g78
tp4812
I0
s(g145
g21
tp4813
I0
s(g110
g56
tp4814
I0
s(g62
g62
tp4815
F0.61316872427983538
s(g115
g51
tp4816
I0
s(g72
g51
tp4817
F0.9992606284658041
s(g100
g34
tp4818
I0
s(g142
g111
tp4819
I0
s(g148
g158
tp4820
I0
s(g281
g142
tp4821
I0
s(g56
g161
tp4822
I0
s(g222
g45
tp4823
I0
s(g62
g3
tp4824
I0
s(g129
g37
tp4825
I0
s(g105
g164
tp4826
I0
s(g105
g78
tp4827
I0
s(g146
g146
tp4828
F0.99438238522631883
s(g129
g90
tp4829
I0
s(g107
g14
tp4830
I0
s(g82
g115
tp4831
I0
s(g148
g35
tp4832
I0
s(g222
g295
tp4833
I0
s(g107
g11
tp4834
I0
s(g37
g129
tp4835
I0
s(g88
g28
tp4836
I0
s(g88
g158
tp4837
I0
s(g118
g124
tp4838
I0
s(g38
g77
tp4839
I0
s(g62
g32
tp4840
I0
s(g164
g164
tp4841
F0.98245614035087714
s(g295
g167
tp4842
I0
s(g114
g142
tp4843
I0
s(g153
g38
tp4844
I0
s(g77
g67
tp4845
I0
s(g94
g38
tp4846
I0
s(g38
g167
tp4847
I0
s(g136
g222
tp4848
I0
s(g8
g67
tp4849
I0
s(g190
g110
tp4850
I0
s(g96
g41
tp4851
I0
s(g25
g91
tp4852
I0
s(g236
g133
tp4853
I0
s(g32
g56
tp4854
I0
s(g2
g35
tp4855
I0
s(g34
g167
tp4856
I0
s(g136
g234
tp4857
I0
s(g94
g222
tp4858
I0
s(g57
g272
tp4859
I0
s(g9
g56
tp4860
I0
s(g65
g6
tp4861
I0
s(g136
g8
tp4862
I0
s(g2
g49
tp4863
I0
s(g167
g51
tp4864
I0
s(g146
g90
tp4865
I0
s(g31
g78
tp4866
I0
s(g37
g69
tp4867
I0
s(g65
g51
tp4868
I0
s(g80
g8
tp4869
I0
s(g164
g11
tp4870
I0
s(g222
g129
tp4871
I0
s(g2
g32
tp4872
F0.29079579384655324
s(g5
g110
tp4873
I0
s(g236
g96
tp4874
I0
s(g90
g178
tp4875
I0
s(g37
g158
tp4876
I0
s(g173
g148
tp4877
I0
s(g71
g5
tp4878
I0
s(g51
g23
tp4879
I0
s(g25
g69
tp4880
I0
s(g94
g74
tp4881
I0
s(g34
g91
tp4882
I0
s(g91
g2
tp4883
I0
s(g145
g90
tp4884
I0
s(g59
g49
tp4885
I0
s(g28
g158
tp4886
I0
s(g26
g32
tp4887
I0
s(g72
g67
tp4888
I0
s(g3
g5
tp4889
I0
s(g142
g88
tp4890
I0
s(g124
g115
tp4891
I0
s(g56
g69
tp4892
I0
s(g111
g146
tp4893
I0
s(g32
g26
tp4894
I0
s(g190
g133
tp4895
I0
s(g164
g295
tp4896
I0
s(g139
g80
tp4897
I0
s(g45
g43
tp4898
I0
s(g111
g114
tp4899
I0
s(g41
g118
tp4900
I0
s(g45
g145
tp4901
I0
s(g153
g53
tp4902
I0
s(g77
g148
tp4903
I0
s(g57
g6
tp4904
I0
s(g105
g3
tp4905
I0
s(g102
g146
tp4906
I0
s(g100
g87
tp4907
I0
s(g88
g69
tp4908
I0
s(g78
g222
tp4909
I0
s(g49
g28
tp4910
I0
s(g18
g8
tp4911
I0
s(g65
g74
tp4912
I0
s(g49
g20
tp4913
I0
s(g153
g114
tp4914
I0
s(g100
g17
tp4915
I0
s(g295
g69
tp4916
I0
s(g38
g2
tp4917
I0
s(g94
g105
tp4918
I0
s(g14
g234
tp4919
I0
s(g77
g88
tp4920
I0
s(g139
g3
tp4921
I0
s(g62
g115
tp4922
I0
s(g31
g148
tp4923
I0
s(g28
g31
tp4924
I0
s(g236
g164
tp4925
I0
s(g107
g23
tp4926
I0
s(g124
g236
tp4927
I0
s(g142
g14
tp4928
I0
s(g90
g2
tp4929
I0
s(g190
g111
tp4930
I0
s(g234
g15
tp4931
I0
s(g32
g236
tp4932
I0
s(g136
g178
tp4933
I0
s(g91
g59
tp4934
I0
s(g82
g57
tp4935
I0
s(g72
g91
tp4936
I0
s(g190
g53
tp4937
I0
s(g37
g153
tp4938
I0
s(g21
g90
tp4939
I0
s(g23
g87
tp4940
I0
s(g158
g105
tp4941
I0
s(g105
g62
tp4942
I0
s(g53
g62
tp4943
I0
s(g234
g65
tp4944
I0
s(g96
g88
tp4945
I0
s(g114
g29
tp4946
I0
s(g136
g49
tp4947
I0
s(g14
g91
tp4948
I0
s(g29
g100
tp4949
I0
s(g15
g35
tp4950
I0
s(g46
g62
tp4951
I0
s(g84
g53
tp4952
I0
s(g100
g133
tp4953
I0
s(g25
g49
tp4954
I0
s(g110
g20
tp4955
I0
s(g234
g71
tp4956
I0
s(g295
g88
tp4957
I0
s(g167
g142
tp4958
I0
s(g31
g5
tp4959
I0
s(g178
g20
tp4960
I0
s(g145
g100
tp4961
I0
s(g295
g222
tp4962
I0
s(g110
g214
tp4963
I0
s(g61
g32
tp4964
I0
s(g164
g94
tp4965
I0
s(g65
g111
tp4966
I0
s(g190
g148
tp4967
I0
s(g77
g21
tp4968
I0
s(g21
g53
tp4969
I0
s(g9
g142
tp4970
I0
s(g136
g67
tp4971
I0
s(g15
g214
tp4972
I0
s(g84
g59
tp4973
I0
s(g214
g32
tp4974
I0
s(g71
g178
tp4975
I0
s(g158
g77
tp4976
I0
s(g142
g41
tp4977
I0
s(g35
g82
tp4978
I0
s(g236
g53
tp4979
I0
s(g118
g3
tp4980
I0
s(g72
g190
tp4981
I0
s(g142
g23
tp4982
I0
s(g295
g59
tp4983
I0
s(g146
g6
tp4984
I0
s(g2
g114
tp4985
I0
s(g91
g20
tp4986
I0
s(g88
g222
tp4987
I0
s(g82
g102
tp4988
I0
s(g124
g222
tp4989
I0
s(g84
g110
tp4990
I0
s(g107
g65
tp4991
I0
s(g105
g5
tp4992
I0
s(g37
g5
tp4993
I0
s(g122
g65
tp4994
I0
s(g148
g65
tp4995
I0
s(g139
g21
tp4996
I0
s(g45
g110
tp4997
I0
s(g46
g145
tp4998
I0
s(g25
g71
tp4999
I0
s(g71
g56
tp5000
I0
s(g90
g77
tp5001
I0
s(g90
g115
tp5002
I0
s(g35
g32
tp5003
I0
s(g65
g133
tp5004
I0
s(g5
g9
tp5005
I0
s(g129
g178
tp5006
I0
s(g3
g110
tp5007
I0
s(g3
g3
tp5008
F0.6092129794499026
s(g102
g29
tp5009
I0
s(g272
g102
tp5010
I0
s(g105
g41
tp5011
I0
s(g295
g153
tp5012
I0
s(g96
g153
tp5013
I0
s(g145
g178
tp5014
I0
s(g40
g35
tp5015
I0
s(g77
g190
tp5016
I0
s(g46
g65
tp5017
I0
s(g34
g8
tp5018
I0
s(g12
g158
tp5019
I0
s(g295
g295
tp5020
F0.99930924125821119
s(g26
g74
tp5021
I0
s(g80
g18
tp5022
I0
s(g82
g32
tp5023
I0
s(g9
g161
tp5024
I0
s(g122
g214
tp5025
I0
s(g88
g41
tp5026
I0
s(g136
g9
tp5027
I0
s(g148
g100
tp5028
I0
s(g295
g100
tp5029
I0
s(g43
g12
tp5030
I0
s(g173
g114
tp5031
I0
s(g17
g161
tp5032
I0
s(g46
g142
tp5033
I0
s(g82
g59
tp5034
I0
s(g234
g80
tp5035
I0
s(g14
g49
tp5036
I0
s(g161
g146
tp5037
I0
s(g35
g74
tp5038
I0
s(g56
g122
tp5039
I0
s(g153
g281
tp5040
I0
s(g11
g51
tp5041
I0
s(g72
g15
tp5042
I0
s(g146
g56
tp5043
I0
s(g146
g173
tp5044
I0
s(g28
g139
tp5045
I0
s(g6
g65
tp5046
I0
s(g8
g17
tp5047
I0
s(g43
g37
tp5048
I0
s(g40
g20
tp5049
I0
s(g35
g214
tp5050
I0
s(g133
g51
tp5051
I0
s(g21
g31
tp5052
I0
s(g114
g139
tp5053
I0
s(g102
g295
tp5054
I0
s(g178
g222
tp5055
I0
s(g8
g32
tp5056
I0
s(g69
g158
tp5057
I0
s(g114
g129
tp5058
I0
s(g62
g158
tp5059
I0
s(g84
g26
tp5060
I0
s(g122
g90
tp5061
I0
s(g9
g20
tp5062
I0
s(g90
g214
tp5063
I0
s(g12
g102
tp5064
I0
s(g122
g53
tp5065
I0
s(g53
g32
tp5066
I0
s(g31
g110
tp5067
I0
s(g61
g12
tp5068
I0
s(g21
g111
tp5069
I0
s(g51
g82
tp5070
I0
s(g114
g41
tp5071
I0
s(g53
g114
tp5072
I0
s(g107
g118
tp5073
I0
s(g18
g18
tp5074
F0.66666666666666663
s(g72
g20
tp5075
I0
s(g49
g71
tp5076
I0
s(g67
g178
tp5077
I0
s(g118
g9
tp5078
I0
s(g124
g190
tp5079
I0
s(g90
g9
tp5080
F0.52409638554216864
s(g45
g25
tp5081
I0
s(g20
g164
tp5082
I0
s(g74
g118
tp5083
I0
s(g43
g17
tp5084
I0
s(g142
g87
tp5085
I0
s(g107
g90
tp5086
I0
s(g161
g122
tp5087
I0
s(g69
g236
tp5088
I0
s(g124
g295
tp5089
I0
s(g153
g102
tp5090
I0
s(g5
g78
tp5091
I0
s(g31
g71
tp5092
I0
s(g17
g133
tp5093
I0
s(g87
g272
tp5094
I0
s(g20
g111
tp5095
I0
s(g43
g57
tp5096
F0.98710675605982467
s(g62
g139
tp5097
I0
s(g190
g31
tp5098
I0
s(g190
g62
tp5099
I0
s(g61
g29
tp5100
I0
s(g110
g124
tp5101
I0
s(g102
g129
tp5102
I0
s(g25
g272
tp5103
I0
s(g18
g164
tp5104
I0
s(g38
g37
tp5105
I0
s(g84
g5
tp5106
F0.27457627118644068
s(g21
g164
tp5107
I0
s(g178
g124
tp5108
I0
s(g59
g6
tp5109
I0
s(g71
g25
tp5110
I0
s(g14
g222
tp5111
I0
s(g281
g91
tp5112
I0
s(g28
g190
tp5113
I0
s(g11
g2
tp5114
I0
s(g62
g34
tp5115
I0
s(g146
g178
tp5116
I0
s(g173
g2
tp5117
I0
s(g21
g57
tp5118
I0
s(g46
g281
tp5119
I0
s(g234
g26
tp5120
I0
s(g72
g38
tp5121
I0
s(g107
g72
tp5122
I0
s(g17
g21
tp5123
I0
s(g295
g37
tp5124
I0
s(g51
g80
tp5125
I0
s(g43
g34
tp5126
I0
s(g122
g100
tp5127
I0
s(g164
g56
tp5128
I0
s(g87
g37
tp5129
I0
s(g31
g35
tp5130
I0
s(g46
g56
tp5131
I0
s(g6
g21
tp5132
I0
s(g107
g6
tp5133
I0
s(g32
g136
tp5134
I0
s(g49
g164
tp5135
I0
s(g158
g118
tp5136
I0
s(g295
g87
tp5137
I0
s(g100
g15
tp5138
I0
s(g139
g74
tp5139
I0
s(g61
g96
tp5140
I0
s(g102
g32
tp5141
I0
s(g3
g158
tp5142
I0
s(g84
g67
tp5143
I0
s(g139
g71
tp5144
I0
s(g71
g23
tp5145
I0
s(g164
g8
tp5146
I0
s(g28
g115
tp5147
I0
s(g20
g78
tp5148
I0
s(g25
g35
tp5149
I0
s(g43
g139
tp5150
I0
s(g17
g69
tp5151
I0
s(g15
g161
tp5152
I0
s(g35
g31
tp5153
I0
s(g94
g41
tp5154
I0
s(g3
g53
tp5155
I0
s(g295
g41
tp5156
I0
s(g80
g38
tp5157
I0
s(g272
g56
tp5158
I0
s(g78
g12
tp5159
I0
s(g32
g15
tp5160
I0
s(g71
g29
tp5161
I0
s(g40
g190
tp5162
I0
s(g129
g61
tp5163
I0
s(g161
g26
tp5164
I0
s(g25
g129
tp5165
I0
s(g102
g12
tp5166
I0
s(g53
g9
tp5167
I0
s(g32
g90
tp5168
I0
s(g102
g31
tp5169
I0
s(g65
g5
tp5170
I0
s(g78
g15
tp5171
I0
s(g5
g133
tp5172
I0
s(g94
g164
tp5173
I0
s(g124
g96
tp5174
I0
s(g136
g153
tp5175
I0
s(g6
g148
tp5176
I0
s(g90
g114
tp5177
I0
s(g45
g129
tp5178
I0
s(g72
g14
tp5179
I0
s(g236
g26
tp5180
I0
s(g167
g161
tp5181
I0
s(g67
g43
tp5182
I0
s(g161
g18
tp5183
I0
s(g124
g9
tp5184
I0
s(g5
g94
tp5185
I0
s(g17
g148
tp5186
I0
s(g15
g61
tp5187
I0
s(g46
g161
tp5188
I0
s(g124
g23
tp5189
I0
s(g214
g35
tp5190
I0
s(g51
g32
tp5191
I0
s(g11
g35
tp5192
I0
s(g40
g5
tp5193
I0
s(g100
g57
tp5194
I0
s(g129
g14
tp5195
I0
s(g295
g82
tp5196
I0
s(g49
g49
tp5197
F0.49152542372881358
s(g5
g88
tp5198
I0
s(g51
g115
tp5199
I0
s(g38
g82
tp5200
I0
s(g222
g94
tp5201
I0
s(g114
g295
tp5202
I0
s(g133
g35
tp5203
I0
s(g102
g43
tp5204
I0
s(g21
g91
tp5205
I0
s(g34
g107
tp5206
I0
s(g14
g122
tp5207
I0
s(g190
g77
tp5208
I0
s(g88
g45
tp5209
F0.54304635761589404
s(g139
g164
tp5210
I0
s(g214
g133
tp5211
I0
s(g102
g272
tp5212
I0
s(g111
g88
tp5213
I0
s(g90
g96
tp5214
I0
s(g122
g295
tp5215
I0
s(g43
g167
tp5216
I0
s(g11
g90
tp5217
I0
s(g12
g65
tp5218
I0
s(g82
g214
tp5219
I0
s(g133
g32
tp5220
I0
s(g214
g88
tp5221
I0
s(g41
g136
tp5222
I0
s(g142
g77
tp5223
I0
s(g105
g45
tp5224
I0
s(g110
g105
tp5225
I0
s(g96
g80
tp5226
I0
s(g40
g15
tp5227
I0
s(g167
g96
tp5228
I0
s(g124
g46
tp5229
I0
s(g145
g43
tp5230
I0
s(g88
g74
tp5231
I0
s(g124
g67
tp5232
I0
s(g272
g236
tp5233
I0
s(g190
g72
tp5234
I0
s(g129
g236
tp5235
I0
s(g12
g15
tp5236
I0
s(g8
g91
tp5237
I0
s(g28
g5
tp5238
I0
s(g110
g167
tp5239
I0
s(g45
g35
tp5240
I0
s(g110
g115
tp5241
I0
s(g6
g67
tp5242
I0
s(g51
g34
tp5243
I0
s(g272
g34
tp5244
I0
s(g69
g84
tp5245
I0
s(g51
g43
tp5246
I0
s(g40
g272
tp5247
F0.38738738738738737
s(g91
g71
tp5248
I0
s(g53
g77
tp5249
I0
s(g38
g46
tp5250
I0
s(g158
g26
tp5251
I0
s(g173
g34
tp5252
I0
s(g3
g23
tp5253
I0
s(g115
g62
tp5254
I0
s(g15
g272
tp5255
I0
s(g67
g9
tp5256
I0
s(g295
g281
tp5257
I0
s(g21
g51
tp5258
I0
s(g8
g11
tp5259
I0
s(g29
g21
tp5260
I0
s(g90
g164
tp5261
I0
s(g173
g51
tp5262
I0
s(g45
g41
tp5263
I0
s(g94
g3
tp5264
I0
s(g37
g214
tp5265
I0
s(g12
g45
tp5266
I0
s(g77
g59
tp5267
I0
s(g15
g167
tp5268
I0
s(g71
g94
tp5269
I0
s(g114
g61
tp5270
I0
s(g80
g71
tp5271
I0
s(g74
g173
tp5272
I0
s(g91
g15
tp5273
I0
s(g118
g110
tp5274
F0.9786798886294561
s(g115
g96
tp5275
I0
s(g136
g146
tp5276
I0
s(g91
g190
tp5277
I0
s(g114
g94
tp5278
I0
s(g25
g40
tp5279
I0
s(g12
g178
tp5280
I0
s(g148
g136
tp5281
I0
s(g136
g25
tp5282
I0
s(g12
g115
tp5283
I0
s(g17
g31
tp5284
I0
s(g110
g74
tp5285
I0
s(g115
g295
tp5286
I0
s(g62
g12
tp5287
I0
s(g145
g111
tp5288
I0
s(g26
g45
tp5289
I0
s(g35
g28
tp5290
I0
s(g107
g46
tp5291
I0
s(g31
g124
tp5292
I0
s(g29
g82
tp5293
I0
s(g53
g234
tp5294
I0
s(g110
g34
tp5295
I0
s(g91
g21
tp5296
I0
s(g32
g129
tp5297
I0
s(g78
g28
tp5298
I0
s(g65
g91
tp5299
I0
s(g158
g295
tp5300
I0
s(g51
g110
tp5301
I0
s(g148
g43
tp5302
I0
s(g118
g173
tp5303
F0.040540540540540543
s(g146
g214
tp5304
I0
s(g18
g214
tp5305
I0
s(g38
g49
tp5306
I0
s(g23
g146
tp5307
I0
s(g234
g28
tp5308
I0
s(g91
g178
tp5309
I0
s(g102
g111
tp5310
I0
s(g20
g142
tp5311
I0
s(g136
g164
tp5312
I0
s(g96
g26
tp5313
I0
s(g136
g6
tp5314
I0
s(g65
g77
tp5315
I0
s(g96
g12
tp5316
I0
s(g12
g38
tp5317
I0
s(g3
g88
tp5318
I0
s(g3
g71
tp5319
I0
s(g173
g136
tp5320
I0
s(g32
g61
tp5321
I0
s(g133
g114
tp5322
I0
s(g122
g62
tp5323
I0
s(g118
g43
tp5324
I0
s(g148
g26
tp5325
I0
s(g25
g136
tp5326
I0
s(g71
g88
tp5327
I0
s(g222
g214
tp5328
I0
s(g136
g59
tp5329
I0
s(g65
g161
tp5330
F0.98334228909188615
s(g236
g49
tp5331
I0
s(g272
g29
tp5332
I0
s(g69
g87
tp5333
I0
s(g72
g72
tp5334
F0.037735849056603772
s(g153
g110
tp5335
I0
s(g31
g25
tp5336
I0
s(g153
g190
tp5337
I0
s(g173
g88
tp5338
I0
s(g236
g158
tp5339
I0
s(g158
g124
tp5340
I0
s(g161
g14
tp5341
I0
s(g148
g118
tp5342
I0
s(g295
g56
tp5343
I0
s(g222
g222
tp5344
F0.5
s(g295
g3
tp5345
I0
s(g37
g82
tp5346
I0
s(g91
g35
tp5347
I0
s(g118
g67
tp5348
I0
s(g29
g167
tp5349
I0
s(g2
g8
tp5350
I0
s(g107
g190
tp5351
I0
s(g96
g84
tp5352
I0
s(g37
g74
tp5353
I0
s(g77
g5
tp5354
I0
s(g35
g56
tp5355
I0
s(g59
g122
tp5356
I0
s(g114
g167
tp5357
I0
s(g2
g105
tp5358
I0
s(g129
g87
tp5359
I0
s(g214
g146
tp5360
I0
s(g82
g29
tp5361
I0
s(g26
g107
tp5362
I0
s(g72
g23
tp5363
I0
s(g5
g38
tp5364
I0
s(g100
g107
tp5365
I0
s(g105
g9
tp5366
I0
s(g96
g11
tp5367
I0
s(g107
g32
tp5368
I0
s(g57
g78
tp5369
I0
s(g178
g6
tp5370
I0
s(g87
g281
tp5371
I0
s(g61
g21
tp5372
I0
s(g21
g214
tp5373
I0
s(g59
g45
tp5374
I0
s(g43
g71
tp5375
I0
s(g234
g136
tp5376
I0
s(g57
g82
tp5377
I0
s(g18
g91
tp5378
I0
s(g31
g214
tp5379
I0
s(g6
g96
tp5380
I0
s(g272
g21
tp5381
I0
s(g110
g234
tp5382
I0
s(g100
g122
tp5383
I0
s(g145
g40
tp5384
I0
s(g161
g21
tp5385
I0
s(g23
g115
tp5386
I0
s(g91
g37
tp5387
I0
s(g35
g26
tp5388
I0
s(g148
g2
tp5389
I0
s(g25
g190
tp5390
I0
s(g110
g84
tp5391
I0
s(g32
g158
tp5392
I0
s(g57
g57
tp5393
F0.47619047619047616
s(g25
g28
tp5394
I0
s(g87
g105
tp5395
I0
s(g65
g20
tp5396
I0
s(g145
g26
tp5397
I0
s(g161
g164
tp5398
I0
s(g57
g35
tp5399
I0
s(g31
g21
tp5400
I0
s(g281
g9
tp5401
I0
s(g107
g153
tp5402
I0
s(g49
g133
tp5403
I0
s(g148
g173
tp5404
I0
s(g94
g100
tp5405
I0
s(g23
g12
tp5406
I0
s(g74
g29
tp5407
I0
s(g161
g90
tp5408
I0
s(g6
g43
tp5409
I0
s(g45
g71
tp5410
I0
s(g107
g62
tp5411
I0
s(g82
g146
tp5412
I0
s(g145
g59
tp5413
I0
s(g35
g129
tp5414
I0
s(g35
g35
tp5415
F0.52531645569620256
s(g21
g145
tp5416
I0
s(g136
g272
tp5417
I0
s(g295
g53
tp5418
I0
s(g49
g146
tp5419
I0
s(g29
g74
tp5420
I0
s(g96
g3
tp5421
I0
s(g34
g96
tp5422
I0
s(g178
g87
tp5423
I0
s(g236
g9
tp5424
I0
s(g67
g77
tp5425
I0
s(g31
g173
tp5426
I0
s(g133
g46
tp5427
I0
s(g29
g178
tp5428
I0
s(g23
g139
tp5429
I0
s(g161
g118
tp5430
I0
s(g295
g145
tp5431
I0
s(g100
g43
tp5432
I0
s(g28
g53
tp5433
I0
s(g46
g118
tp5434
I0
s(g43
g91
tp5435
I0
s(g53
g53
tp5436
F0.50292397660818711
s(g32
g8
tp5437
I0
s(g15
g3
tp5438
I0
s(g15
g62
tp5439
I0
s(g100
g12
tp5440
I0
s(g139
g124
tp5441
I0
s(g37
g53
tp5442
I0
s(g158
g12
tp5443
I0
s(g110
g21
tp5444
I0
s(g38
g67
tp5445
I0
s(g49
g153
tp5446
I0
s(g146
g222
tp5447
I0
s(g145
g105
tp5448
I0
s(g94
g91
tp5449
I0
s(g37
g31
tp5450
I0
s(g87
g53
tp5451
I0
s(g45
g222
tp5452
I0
s(g234
g167
tp5453
I0
s(g96
g32
tp5454
I0
s(g167
g115
tp5455
F0.5
s(g272
g3
tp5456
I0
s(g122
g118
tp5457
I0
s(g94
g65
tp5458
I0
s(g173
g190
tp5459
I0
s(g281
g146
tp5460
I0
s(g111
g236
tp5461
I0
s(g110
g35
tp5462
I0
s(g145
g102
tp5463
I0
s(g118
g21
tp5464
I0
s(g8
g38
tp5465
F0.91764705882352948
s(g158
g100
tp5466
I0
s(g96
g129
tp5467
I0
s(g11
g78
tp5468
I0
s(g153
g11
tp5469
I0
s(g115
g25
tp5470
I0
s(g236
g62
tp5471
I0
s(g8
g3
tp5472
I0
s(g114
g173
tp5473
I0
s(g14
g61
tp5474
I0
s(g62
g20
tp5475
I0
s(g136
g5
tp5476
I0
s(g37
g32
tp5477
I0
s(g62
g5
tp5478
I0
s(g40
g118
tp5479
I0
s(g236
g146
tp5480
I0
s(g87
g17
tp5481
I0
s(g51
g100
tp5482
I0
s(g281
g43
tp5483
I0
s(g12
g236
tp5484
I0
s(g17
g167
tp5485
I0
s(g72
g34
tp5486
I0
s(g96
g178
tp5487
I0
s(g45
g82
tp5488
I0
s(g69
g61
tp5489
I0
s(g61
g28
tp5490
I0
s(g46
g31
tp5491
I0
s(g43
g272
tp5492
I0
s(g51
g21
tp5493
I0
s(g15
g59
tp5494
I0
s(g40
g84
tp5495
I0
s(g90
g100
tp5496
I0
s(g87
g57
tp5497
I0
s(g142
g26
tp5498
I0
s(g18
g178
tp5499
I0
s(g100
g161
tp5500
I0
s(g65
g25
tp5501
I0
s(g56
g15
tp5502
I0
s(g164
g41
tp5503
I0
s(g173
g142
tp5504
I0
s(g49
g295
tp5505
I0
s(g15
g23
tp5506
I0
s(g43
g9
tp5507
I0
s(g142
g51
tp5508
I0
s(g161
g145
tp5509
I0
s(g69
g146
tp5510
I0
s(g91
g51
tp5511
I0
s(g26
g145
tp5512
I0
s(g43
g29
tp5513
I0
s(g158
g57
tp5514
I0
s(g28
g88
tp5515
I0
s(g25
g8
tp5516
I0
s(g8
g122
tp5517
I0
s(g190
g146
tp5518
I0
s(g222
g178
tp5519
I0
s(g3
g32
tp5520
I0
s(g77
g96
tp5521
I0
s(g20
g118
tp5522
I0
s(g96
g107
tp5523
I0
s(g80
g96
tp5524
I0
s(g105
g234
tp5525
I0
s(g3
g49
tp5526
I0
s(g102
g2
tp5527
I0
s(g69
g272
tp5528
I0
s(g21
g35
tp5529
I0
s(g272
g222
tp5530
I0
s(g148
g102
tp5531
I0
s(g122
g145
tp5532
I0
s(g146
g167
tp5533
I0
s(g145
g35
tp5534
I0
s(g115
g236
tp5535
I0
s(g20
g69
tp5536
I0
s(g111
g133
tp5537
I0
s(g51
g29
tp5538
I0
s(g18
g34
tp5539
I0
s(g234
g129
tp5540
I0
s(g139
g38
tp5541
I0
s(g173
g21
tp5542
I0
s(g77
g107
tp5543
I0
s(g111
g5
tp5544
I0
s(g56
g96
tp5545
I0
s(g88
g100
tp5546
I0
s(g14
g37
tp5547
I0
s(g84
g153
tp5548
I0
s(g91
g114
tp5549
I0
s(g77
g51
tp5550
I0
s(g107
g96
tp5551
I0
s(g3
g139
tp5552
I0
s(g107
g59
tp5553
I0
s(g20
g173
tp5554
I0
s(g111
g96
tp5555
I0
s(g72
g62
tp5556
I0
s(g234
g94
tp5557
I0
s(g146
g139
tp5558
I0
s(g161
g94
tp5559
I0
s(g5
g234
tp5560
I0
s(g21
g56
tp5561
I0
s(g57
g51
tp5562
I0
s(g153
g129
tp5563
I0
s(g234
g90
tp5564
I0
s(g40
g77
tp5565
I0
s(g281
g23
tp5566
I0
s(g139
g82
tp5567
I0
s(g84
g51
tp5568
I0
s(g53
g20
tp5569
I0
s(g115
g2
tp5570
I0
s(g69
g21
tp5571
I0
s(g9
g35
tp5572
I0
s(g11
g41
tp5573
I0
s(g122
g91
tp5574
I0
s(g167
g28
tp5575
I0
s(g56
g87
tp5576
I0
s(g214
g69
tp5577
I0
s(g158
g214
tp5578
I0
s(g32
g45
tp5579
I0
s(g190
g43
tp5580
I0
s(g21
g23
tp5581
I0
s(g236
g153
tp5582
I0
s(g133
g23
tp5583
I0
s(g34
g139
tp5584
I0
s(g17
g295
tp5585
I0
s(g53
g57
tp5586
I0
s(g56
g17
tp5587
I0
s(g6
g146
tp5588
I0
s(g161
g3
tp5589
I0
s(g161
g295
tp5590
I0
s(g214
g62
tp5591
I0
s(g12
g8
tp5592
F0.5
s(g77
g114
tp5593
I0
s(g222
g105
tp5594
I0
s(g136
g3
tp5595
I0
s(g136
g190
tp5596
I0
s(g6
g8
tp5597
I0
s(g105
g31
tp5598
I0
s(g80
g272
tp5599
I0
s(g71
g222
tp5600
I0
s(g110
g23
tp5601
I0
s(g114
g110
tp5602
I0
s(g40
g8
tp5603
I0
s(g6
g115
tp5604
I0
s(g5
g69
tp5605
I0
s(g18
g21
tp5606
I0
s(g190
g8
tp5607
I0
s(g222
g56
tp5608
I0
s(g71
g167
tp5609
I0
s(g107
g78
tp5610
I0
s(g17
g115
tp5611
I0
s(g45
g77
tp5612
I0
s(g173
g20
tp5613
I0
s(g3
g9
tp5614
I0
s(g236
g37
tp5615
I0
s(g190
g11
tp5616
I0
s(g148
g17
tp5617
I0
s(g153
g142
tp5618
I0
s(g178
g94
tp5619
I0
s(g25
g56
tp5620
I0
s(g53
g88
tp5621
I0
s(g46
g38
tp5622
I0
s(g25
g5
tp5623
I0
s(g139
g139
tp5624
F0.17948717948717949
s(g9
g173
tp5625
I0
s(g105
g32
tp5626
I0
s(g57
g46
tp5627
I0
s(g91
g23
tp5628
I0
s(g122
g45
tp5629
I0
s(g28
g49
tp5630
I0
s(g88
g295
tp5631
I0
s(g43
g136
tp5632
I0
s(g62
g164
tp5633
I0
s(g281
g37
tp5634
I0
s(g164
g32
tp5635
I0
s(g214
g61
tp5636
I0
s(g114
g18
tp5637
I0
s(g118
g178
tp5638
I0
s(g40
g295
tp5639
I0
s(g88
g139
tp5640
I0
s(g8
g94
tp5641
I0
s(g222
g26
tp5642
I0
s(g71
g96
tp5643
I0
s(g57
g28
tp5644
I0
s(g88
g111
tp5645
I0
s(g146
g118
tp5646
I0
s(g84
g37
tp5647
I0
s(g23
g3
tp5648
I0
s(g25
g3
tp5649
I0
s(g90
g34
tp5650
I0
s(g190
g145
tp5651
I0
s(g17
g45
tp5652
I0
s(g6
g173
tp5653
I0
s(g82
g5
tp5654
I0
s(g105
g139
tp5655
I0
s(g26
g31
tp5656
I0
s(g173
g67
tp5657
I0
s(g57
g124
tp5658
I0
s(g94
g59
tp5659
I0
s(g161
g31
tp5660
I0
s(g77
g115
tp5661
I0
s(g6
g45
tp5662
I0
s(g46
g139
tp5663
I0
s(g35
g11
tp5664
I0
s(g2
g20
tp5665
I0
s(g3
g29
tp5666
F0.031531531531531529
s(g107
g115
tp5667
I0
s(g222
g6
tp5668
I0
s(g38
g190
tp5669
I0
s(g46
g23
tp5670
I0
s(g67
g111
tp5671
I0
s(g129
g80
tp5672
I0
s(g28
g65
tp5673
I0
s(g23
g40
tp5674
I0
s(g94
g23
tp5675
I0
s(g45
g14
tp5676
I0
s(g51
g8
tp5677
I0
s(g20
g34
tp5678
I0
s(g74
g105
tp5679
I0
s(g190
g37
tp5680
I0
s(g37
g46
tp5681
I0
s(g96
g115
tp5682
I0
s(g110
g96
tp5683
I0
s(g100
g234
tp5684
I0
s(g32
g164
tp5685
I0
s(g69
g173
tp5686
I0
s(g28
g11
tp5687
I0
s(g133
g281
tp5688
I0
s(g161
g102
tp5689
I0
s(g158
g34
tp5690
I0
s(g102
g178
tp5691
I0
s(g84
g129
tp5692
I0
s(g78
g80
tp5693
I0
s(g71
g115
tp5694
I0
s(g45
g136
tp5695
I0
s(g78
g114
tp5696
I0
s(g2
g107
tp5697
I0
s(g94
g8
tp5698
I0
s(g139
g178
tp5699
I0
s(g87
g173
tp5700
I0
s(g153
g222
tp5701
I0
s(g234
g31
tp5702
I0
s(g122
g11
tp5703
I0
s(g57
g25
tp5704
I0
s(g110
g45
tp5705
I0
s(g136
g148
tp5706
I0
s(g2
g65
tp5707
I0
s(g18
g12
tp5708
I0
s(g49
g31
tp5709
I0
s(g111
g94
tp5710
I0
s(g45
g88
tp5711
I0
s(g178
g88
tp5712
I0
s(g139
g272
tp5713
I0
s(g295
g190
tp5714
I0
s(g59
g102
tp5715
I0
s(g72
g25
tp5716
I0
s(g161
g61
tp5717
I0
s(g158
g87
tp5718
I0
s(g35
g34
tp5719
I0
s(g84
g35
tp5720
I0
s(g164
g26
tp5721
I0
s(g14
g102
tp5722
I0
s(g295
g158
tp5723
I0
s(g17
g28
tp5724
I0
s(g295
g133
tp5725
I0
s(g67
g272
tp5726
I0
s(g90
g124
tp5727
I0
s(g34
g20
tp5728
I0
s(g115
g74
tp5729
I0
s(g8
g78
tp5730
I0
s(g133
g153
tp5731
I0
s(g96
g236
tp5732
I0
s(g2
g84
tp5733
I0
s(g136
g158
tp5734
I0
s(g49
g72
tp5735
I0
s(g167
g236
tp5736
I0
s(g115
g46
tp5737
I0
s(g8
g87
tp5738
I0
s(g69
g17
tp5739
I0
s(g53
g139
tp5740
I0
s(g167
g12
tp5741
I0
s(g26
g65
tp5742
I0
s(g40
g114
tp5743
I0
s(g84
g133
tp5744
I0
s(g139
g2
tp5745
F0.83076750730708782
s(g100
g153
tp5746
I0
s(g6
g9
tp5747
I0
s(g236
g28
tp5748
I0
s(g102
g69
tp5749
I0
s(g102
g15
tp5750
I0
s(g139
g72
tp5751
I0
s(g272
g26
tp5752
I0
s(g124
g133
tp5753
I0
s(g11
g25
tp5754
I0
s(g31
g8
tp5755
I0
s(g164
g82
tp5756
I0
s(g236
g43
tp5757
I0
s(g222
g5
tp5758
I0
s(g49
g158
tp5759
I0
s(g21
g71
tp5760
I0
s(g105
g29
tp5761
I0
s(g6
g12
tp5762
I0
s(g35
g222
tp5763
I0
s(g61
g107
tp5764
I0
s(g49
g178
tp5765
I0
s(g84
g96
tp5766
I0
s(g146
g129
tp5767
I0
s(g153
g96
tp5768
I0
s(g41
g23
tp5769
I0
s(g62
g84
tp5770
I0
s(g114
g105
tp5771
I0
s(g62
g222
tp5772
F0.073985472576225481
s(g122
g158
tp5773
I0
s(g173
g71
tp5774
I0
s(g74
g148
tp5775
I0
s(g45
g153
tp5776
I0
s(g90
g8
tp5777
I0
s(g167
g29
tp5778
I0
s(g5
g17
tp5779
I0
s(g100
g281
tp5780
I0
s(g102
g82
tp5781
I0
s(g153
g49
tp5782
I0
s(g8
g236
tp5783
I0
s(g190
g69
tp5784
I0
s(g72
g8
tp5785
I0
s(g272
g91
tp5786
I0
s(g96
g234
tp5787
I0
s(g51
g118
tp5788
I0
s(g5
g57
tp5789
I0
s(g80
g17
tp5790
I0
s(g9
g37
tp5791
I0
s(g118
g18
tp5792
I0
s(g31
g59
tp5793
I0
s(g67
g96
tp5794
I0
s(g133
g41
tp5795
I0
s(g115
g122
tp5796
I0
s(g82
g164
tp5797
I0
s(g122
g46
tp5798
I0
s(g43
g153
tp5799
I0
s(g91
g25
tp5800
I0
s(g90
g21
tp5801
I0
s(g38
g31
tp5802
I0
s(g173
g222
tp5803
I0
s(g281
g40
tp5804
I0
s(g164
g167
tp5805
I0
s(g2
g124
tp5806
I0
s(g110
g91
tp5807
I0
s(g43
g62
tp5808
I0
s(g214
g14
tp5809
I0
s(g65
g56
tp5810
I0
s(g49
g122
tp5811
I0
s(g281
g17
tp5812
I0
s(g178
g158
tp5813
I0
s(g5
g84
tp5814
I0
s(g69
g142
tp5815
I0
s(g114
g3
tp5816
I0
s(g61
g59
tp5817
I0
s(g67
g148
tp5818
I0
s(g94
g90
tp5819
I0
s(g65
g105
tp5820
I0
s(g56
g2
tp5821
I0
s(g59
g124
tp5822
I0
s(g102
g18
tp5823
I0
s(g102
g28
tp5824
I0
s(g5
g51
tp5825
I0
s(g6
g164
tp5826
I0
s(g38
g32
tp5827
I0
s(g11
g139
tp5828
I0
s(g34
g74
tp5829
I0
s(g133
g29
tp5830
I0
s(g178
g38
tp5831
I0
s(g129
g45
tp5832
I0
s(g139
g53
tp5833
I0
s(g72
g49
tp5834
I0
s(g91
g136
tp5835
I0
s(g164
g37
tp5836
I0
s(g281
g32
tp5837
I0
s(g46
g69
tp5838
I0
s(g139
g29
tp5839
I0
s(g91
g43
tp5840
F0.9850746268656716
s(g236
g29
tp5841
I0
s(g6
g295
tp5842
I0
s(g100
g62
tp5843
I0
s(g158
g281
tp5844
I0
s(g78
g14
tp5845
I0
s(g142
g31
tp5846
I0
s(g69
g82
tp5847
I0
s(g37
g17
tp5848
I0
s(g57
g91
tp5849
I0
s(g25
g46
tp5850
I0
s(g88
g118
tp5851
I0
s(g2
g214
tp5852
I0
s(g15
g173
tp5853
I0
s(g51
g91
tp5854
I0
s(g29
g3
tp5855
I0
s(g87
g8
tp5856
I0
s(g142
g178
tp5857
I0
s(g18
g71
tp5858
I0
s(g3
g25
tp5859
I0
s(g142
g105
tp5860
I0
s(g164
g5
tp5861
I0
s(g122
g122
tp5862
F0.54634146341463419
s(g28
g32
tp5863
I0
s(g18
g3
tp5864
I0
s(g67
g72
tp5865
I0
s(g18
g51
tp5866
I0
s(g8
g153
tp5867
I0
s(g114
g56
tp5868
I0
s(g164
g122
tp5869
I0
s(g110
g69
tp5870
I0
s(g17
g88
tp5871
I0
s(g90
g145
tp5872
I0
s(g14
g31
tp5873
I0
s(g173
g161
tp5874
I0
s(g115
g8
tp5875
I0
s(g80
g61
tp5876
I0
s(g236
g12
tp5877
I0
s(g20
g84
tp5878
I0
s(g61
g45
tp5879
I0
s(g14
g133
tp5880
I0
s(g21
g88
tp5881
I0
s(g65
g40
tp5882
I0
s(g59
g222
tp5883
I0
s(g21
g37
tp5884
I0
s(g87
g9
tp5885
I0
s(g21
g295
tp5886
I0
s(g124
g164
tp5887
I0
s(g17
g236
tp5888
I0
s(g57
g84
tp5889
I0
s(g11
g158
tp5890
I0
s(g167
g9
tp5891
I0
s(g25
g11
tp5892
I0
s(g107
g49
tp5893
I0
s(g14
g114
tp5894
I0
s(g124
g62
tp5895
I0
s(g3
g6
tp5896
I0
s(g40
g146
tp5897
I0
s(g82
g148
tp5898
I0
s(g158
g41
tp5899
I0
s(g6
g153
tp5900
I0
s(g234
g62
tp5901
I0
s(g153
g23
tp5902
I0
s(g136
g88
tp5903
I0
s(g5
g139
tp5904
I0
s(g8
g74
tp5905
I0
s(g136
g71
tp5906
I0
s(g43
g236
tp5907
I0
s(g2
g78
tp5908
I0
s(g21
g178
tp5909
I0
s(g173
g129
tp5910
I0
s(g29
g107
tp5911
I0
s(g45
g272
tp5912
I0
s(g158
g114
tp5913
I0
s(g190
g15
tp5914
I0
s(g3
g59
tp5915
I0
s(g18
g158
tp5916
I0
s(g43
g28
tp5917
I0
s(g222
g90
tp5918
I0
s(g222
g118
tp5919
I0
s(g2
g111
tp5920
I0
s(g37
g43
tp5921
I0
s(g88
g234
tp5922
I0
s(g72
g74
tp5923
I0
s(g236
g69
tp5924
I0
s(g190
g281
tp5925
I0
s(g178
g190
tp5926
I0
s(g148
g38
tp5927
I0
s(g102
g164
tp5928
I0
s(g32
g31
tp5929
I0
s(g74
g102
tp5930
I0
s(g21
g65
tp5931
I0
s(g45
g15
tp5932
I0
s(g88
g145
tp5933
I0
s(g9
g41
tp5934
I0
s(g40
g25
tp5935
I0
s(g25
g25
tp5936
F0.022727272727272728
s(g69
g91
tp5937
I0
s(g87
g62
tp5938
I0
s(g3
g34
tp5939
I0
s(g62
g23
tp5940
I0
s(g14
g87
tp5941
I0
s(g62
g173
tp5942
I0
s(g37
g8
tp5943
I0
s(g8
g84
tp5944
I0
s(g158
g46
tp5945
I0
s(g272
g25
tp5946
I0
s(g129
g15
tp5947
I0
s(g67
g136
tp5948
I0
s(g84
g3
tp5949
I0
s(g84
g190
tp5950
I0
s(g82
g78
tp5951
I0
s(g53
g96
tp5952
I0
s(g17
g32
tp5953
I0
s(g49
g51
tp5954
I0
s(g107
g20
tp5955
F0.50243615141618025
s(g21
g61
tp5956
I0
s(g190
g96
tp5957
I0
s(g281
g190
tp5958
I0
s(g82
g118
tp5959
I0
s(g133
g3
tp5960
I0
s(g173
g77
tp5961
I0
s(g45
g5
tp5962
I0
s(g133
g105
tp5963
I0
s(g12
g17
tp5964
I0
s(g57
g5
tp5965
I0
s(g62
g15
tp5966
I0
s(g8
g57
tp5967
I0
s(g115
g146
tp5968
I0
s(g15
g139
tp5969
I0
s(g51
g164
tp5970
I0
s(g15
g12
tp5971
I0
s(g111
g11
tp5972
I0
s(g164
g25
tp5973
I0
s(g153
g2
tp5974
I0
s(g71
g41
tp5975
I0
s(g11
g56
tp5976
I0
s(g236
g190
tp5977
I0
s(g272
g164
tp5978
I0
s(g45
g57
tp5979
I0
s(g12
g161
tp5980
I0
s(g3
g77
tp5981
I0
s(g133
g2
tp5982
F0.90474750529180525
s(g21
g78
tp5983
I0
s(g133
g295
tp5984
I0
s(g6
g5
tp5985
I0
s(g214
g82
tp5986
I0
s(g34
g133
tp5987
I0
s(g90
g110
tp5988
I0
s(g153
g90
tp5989
I0
s(g272
g124
tp5990
I0
s(g31
g65
tp5991
I0
s(g69
g148
tp5992
I0
s(g61
g167
tp5993
I0
s(g57
g71
tp5994
I0
s(g107
g53
tp5995
I0
s(g11
g71
tp5996
I0
s(g139
g32
tp5997
I0
s(g49
g115
tp5998
I0
s(g118
g111
tp5999
I0
s(g236
g82
tp6000
I0
s(g118
g164
tp6001
I0
s(g53
g146
tp6002
I0
s(g105
g146
tp6003
I0
s(g145
g62
tp6004
I0
s(g295
g49
tp6005
I0
s(g40
g139
tp6006
I0
s(g9
g12
tp6007
I0
s(g214
g53
tp6008
I0
s(g153
g37
tp6009
I0
s(g124
g35
tp6010
F0.9942753841518529
s(g214
g28
tp6011
I0
s(g142
g6
tp6012
I0
s(g148
g77
tp6013
I0
s(g29
g118
tp6014
I0
s(g80
g9
tp6015
I0
s(g145
g69
tp6016
F0.99385982102031478
s(g49
g136
tp6017
I0
s(g15
g111
tp6018
I0
s(g15
g14
tp6019
I0
s(g40
g110
tp6020
I0
s(g43
g158
tp6021
I0
s(g164
g124
tp6022
I0
s(g122
g72
tp6023
I0
s(g148
g9
tp6024
I0
s(g51
g111
tp6025
I0
s(g145
g118
tp6026
I0
s(g6
g57
tp6027
I0
s(g96
g18
tp6028
I0
s(g43
g96
tp6029
I0
s(g72
g167
tp6030
I0
s(g28
g107
tp6031
I0
s(g100
g94
tp6032
I0
s(g164
g190
tp6033
I0
s(g20
g61
tp6034
I0
s(g110
g136
tp6035
I0
s(g234
g6
tp6036
I0
s(g51
g26
tp6037
I0
s(g87
g153
tp6038
I0
s(g133
g65
tp6039
I0
s(g281
g15
tp6040
I0
s(g214
g281
tp6041
I0
s(g167
g153
tp6042
I0
s(g161
g82
tp6043
I0
s(g6
g59
tp6044
I0
s(g84
g61
tp6045
I0
s(g111
g72
tp6046
I0
s(g31
g2
tp6047
I0
s(g167
g222
tp6048
I0
s(g43
g234
tp6049
I0
s(g15
g88
tp6050
I0
s(g28
g61
tp6051
I0
s(g21
g34
tp6052
I0
s(g41
g34
tp6053
I0
s(g234
g124
tp6054
I0
s(g29
g29
tp6055
F0.5
s(g111
g80
tp6056
I0
s(g111
g295
tp6057
I0
s(g46
g84
tp6058
I0
s(g25
g107
tp6059
I0
s(g281
g6
tp6060
I0
s(g5
g71
tp6061
I0
s(g28
g46
tp6062
I0
s(g62
g80
tp6063
I0
s(g62
g56
tp6064
I0
s(g15
g153
tp6065
I0
s(g148
g40
tp6066
I0
s(g51
g148
tp6067
I0
s(g17
g51
tp6068
I0
s(g62
g69
tp6069
I0
s(g129
g59
tp6070
I0
s(g129
g118
tp6071
I0
s(g110
g161
tp6072
I0
s(g105
g178
tp6073
I0
s(g12
g41
tp6074
I0
s(g153
g80
tp6075
I0
s(g21
g87
tp6076
I0
s(g38
g80
tp6077
I0
s(g23
g142
tp6078
I0
s(g11
g146
tp6079
I0
s(g115
g40
tp6080
I0
s(g222
g37
tp6081
I0
s(g71
g110
tp6082
I0
s(g56
g90
tp6083
I0
s(g148
g69
tp6084
I0
s(g53
g69
tp6085
I0
s(g32
g43
tp6086
I0
s(g236
g6
tp6087
I0
s(g100
g82
tp6088
I0
s(g29
g145
tp6089
I0
s(g56
g56
tp6090
F0.5
s(g11
g8
tp6091
I0
s(g78
g153
tp6092
I0
s(g32
g91
tp6093
I0
s(g43
g115
tp6094
I0
s(g87
g222
tp6095
I0
s(g146
g234
tp6096
I0
s(g136
g32
tp6097
I0
s(g32
g9
tp6098
I0
s(g26
g18
tp6099
I0
s(g133
g6
tp6100
I0
s(g62
g100
tp6101
I0
s(g71
g190
tp6102
I0
s(g57
g222
tp6103
I0
s(g84
g45
tp6104
I0
s(g142
g164
tp6105
I0
s(g28
g45
tp6106
I0
s(g87
g115
tp6107
I0
s(g110
g102
tp6108
I0
s(g90
g78
tp6109
I0
s(g15
g72
tp6110
I0
s(g3
g69
tp6111
I0
s(g167
g32
tp6112
I0
s(g111
g136
tp6113
I0
s(g82
g51
tp6114
I0
s(g161
g46
tp6115
I0
s(g74
g129
tp6116
I0
s(g78
g74
tp6117
I0
s(g35
g124
tp6118
I0
s(g72
g84
tp6119
I0
s(g80
g111
tp6120
I0
s(g94
g107
tp6121
I0
s(g146
g17
tp6122
I0
s(g87
g178
tp6123
I0
s(g136
g139
tp6124
I0
s(g67
g34
tp6125
I0
s(g59
g105
tp6126
I0
s(g124
g153
tp6127
I0
s(g107
g142
tp6128
I0
s(g25
g18
tp6129
I0
s(g122
g23
tp6130
I0
s(g173
g153
tp6131
I0
s(g114
g236
tp6132
I0
s(g35
g118
tp6133
I0
s(g236
g45
tp6134
I0
s(g37
g124
tp6135
I0
s(g61
g78
tp6136
I0
s(g21
g72
tp6137
I0
s(g167
g84
tp6138
I0
s(g29
g41
tp6139
I0
s(g164
g102
tp6140
F0.5
s(g158
g178
tp6141
I0
s(g28
g26
tp6142
I0
s(g100
g167
tp6143
I0
s(g77
g62
tp6144
F0.30136986301369861
s(g6
g167
tp6145
I0
s(g122
g29
tp6146
I0
s(g71
g122
tp6147
I0
s(g43
g21
tp6148
I0
s(g20
g90
tp6149
I0
s(g94
g124
tp6150
I0
s(g146
g11
tp6151
I0
s(g74
g100
tp6152
I0
s(g91
g115
tp6153
I0
s(g167
g62
tp6154
I0
s(g23
g6
tp6155
I0
s(g69
g3
tp6156
I0
s(g11
g37
tp6157
F0.97399034924274397
s(g114
g111
tp6158
I0
s(g111
g84
tp6159
I0
s(g84
g94
tp6160
I0
s(g31
g40
tp6161
I0
s(g111
g32
tp6162
I0
s(g32
g145
tp6163
I0
s(g167
g136
tp6164
I0
s(g53
g115
tp6165
I0
s(g72
g3
tp6166
I0
s(g3
g190
tp6167
I0
s(g124
g100
tp6168
I0
s(g62
g133
tp6169
I0
s(g94
g57
tp6170
I0
s(g71
g142
tp6171
I0
s(g69
g46
tp6172
I0
s(g9
g167
tp6173
I0
s(g161
g32
tp6174
I0
s(g77
g110
tp6175
I0
s(g12
g94
tp6176
I0
s(g38
g26
tp6177
I0
s(g148
g153
tp6178
I0
s(g167
g88
tp6179
I0
s(g18
g37
tp6180
I0
s(g161
g41
tp6181
I0
s(g178
g3
tp6182
I0
s(g43
g43
tp6183
F0.43103448275862066
s(g136
g57
tp6184
I0
s(g164
g62
tp6185
I0
s(g49
g139
tp6186
I0
s(g21
g82
tp6187
I0
s(g158
g49
tp6188
I0
s(g18
g133
tp6189
I0
s(g61
g148
tp6190
I0
s(g49
g142
tp6191
I0
s(g56
g110
tp6192
I0
s(g111
g105
tp6193
I0
s(g38
g102
tp6194
I0
s(g65
g173
tp6195
I0
s(g23
g43
tp6196
I0
s(g74
g26
tp6197
I0
s(g51
g41
tp6198
I0
s(g34
g190
tp6199
I0
s(g8
g146
tp6200
I0
s(g139
g40
tp6201
I0
s(g62
g214
tp6202
I0
s(g173
g107
tp6203
I0
s(g145
g236
tp6204
I0
s(g118
g214
tp6205
I0
s(g133
g214
tp6206
I0
s(g80
g5
tp6207
I0
s(g142
g91
tp6208
I0
s(g102
g94
tp6209
I0
s(g214
g20
tp6210
I0
s(g18
g281
tp6211
I0
s(g37
g28
tp6212
I0
s(g115
g61
tp6213
I0
s(g21
g43
tp6214
I0
s(g45
g133
tp6215
I0
s(g57
g178
tp6216
I0
s(g164
g40
tp6217
I0
s(g115
g145
tp6218
I0
s(g234
g53
tp6219
I0
s(g17
g111
tp6220
I0
s(g158
g167
tp6221
I0
s(g122
g236
tp6222
I0
s(g15
g49
tp6223
I0
s(g91
g110
tp6224
I0
s(g29
g281
tp6225
I0
s(g15
g122
tp6226
I0
s(g214
g57
tp6227
I0
s(g214
g105
tp6228
I0
s(g146
g114
tp6229
I0
s(g295
g15
tp6230
I0
s(g145
g46
tp6231
I0
s(g105
g133
tp6232
I0
s(g71
g100
tp6233
I0
s(g56
g11
tp6234
I0
s(g29
g49
tp6235
I0
s(g72
g145
tp6236
I0
s(g94
g167
tp6237
I0
s(g146
g136
tp6238
I0
s(g65
g38
tp6239
I0
s(g102
g56
tp6240
I0
s(g136
g29
tp6241
I0
s(g53
g2
tp6242
I0
s(g26
g17
tp6243
I0
s(g29
g234
tp6244
I0
s(g124
g38
tp6245
I0
s(g65
g26
tp6246
I0
s(g6
g15
tp6247
I0
s(g9
g272
tp6248
I0
s(g78
g9
tp6249
I0
s(g65
g43
tp6250
I0
s(g82
g69
tp6251
I0
s(g102
g20
tp6252
I0
s(g100
g110
tp6253
I0
s(g114
g20
tp6254
I0
s(g32
g25
tp6255
I0
s(g53
g173
tp6256
I0
s(g222
g15
tp6257
I0
s(g18
g57
tp6258
I0
s(g118
g146
tp6259
I0
s(g65
g167
tp6260
I0
s(g100
g18
tp6261
I0
s(g105
g122
tp6262
I0
s(g145
g234
tp6263
I0
s(g28
g20
tp6264
I0
s(g124
g139
tp6265
I0
s(g124
g111
tp6266
I0
s(g74
g111
tp6267
I0
s(g129
g41
tp6268
I0
s(g45
g118
tp6269
I0
s(g29
g153
tp6270
I0
s(g114
g37
tp6271
I0
s(g124
g129
tp6272
I0
s(g40
g43
tp6273
I0
s(g6
g281
tp6274
I0
s(g100
g236
tp6275
I0
s(g23
g57
tp6276
I0
s(g214
g71
tp6277
F0.890625
s(g25
g38
tp6278
I0
s(g111
g110
tp6279
I0
s(g102
g5
tp6280
I0
s(g272
g78
tp6281
I0
s(g173
g18
tp6282
I0
s(g122
g115
tp6283
I0
s(g17
g281
tp6284
I0
s(g3
g148
tp6285
I0
s(g31
g41
tp6286
I0
s(g62
g178
tp6287
I0
s(g90
g107
tp6288
I0
s(g67
g51
tp6289
I0
s(g37
g25
tp6290
I0
s(g115
g77
tp6291
I0
s(g2
g41
tp6292
I0
s(g65
g158
tp6293
I0
s(g272
g8
tp6294
I0
s(g173
g9
tp6295
I0
s(g94
g82
tp6296
I0
s(g139
g161
tp6297
I0
s(g15
g107
tp6298
I0
s(g214
g9
tp6299
I0
s(g80
g91
tp6300
I0
s(g78
g236
tp6301
I0
s(g61
g18
tp6302
F0.5
s(g72
g53
tp6303
I0
s(g2
g38
tp6304
I0
s(g214
g111
tp6305
F0.31578947368421051
s(g32
g124
tp6306
I0
s(g124
g107
tp6307
I0
s(g122
g281
tp6308
I0
s(g29
g37
tp6309
I0
s(g56
g142
tp6310
I0
s(g133
g234
tp6311
I0
s(g148
g91
tp6312
I0
s(g5
g115
tp6313
I0
s(g61
g41
tp6314
I0
s(g139
g145
tp6315
I0
s(g9
g51
tp6316
I0
s(g107
g28
tp6317
I0
s(g69
g2
tp6318
I0
s(g17
g62
tp6319
I0
s(g28
g43
tp6320
I0
s(g110
g29
tp6321
I0
s(g142
g18
tp6322
I0
s(g164
g114
tp6323
I0
s(g153
g59
tp6324
I0
s(g173
g8
tp6325
I0
s(g110
g37
tp6326
I0
s(g74
g67
tp6327
I0
s(g41
g133
tp6328
I0
s(g67
g173
tp6329
I0
s(g65
g59
tp6330
I0
s(g178
g31
tp6331
I0
s(g23
g122
tp6332
I0
s(g56
g71
tp6333
I0
s(g148
g234
tp6334
I0
s(g2
g88
tp6335
I0
s(g96
g45
tp6336
I0
s(g107
g281
tp6337
I0
s(g32
g46
tp6338
I0
s(g45
g38
tp6339
I0
s(g139
g102
tp6340
I0
s(g161
g153
tp6341
I0
s(g41
g37
tp6342
I0
s(g94
g236
tp6343
I0
s(g295
g161
tp6344
I0
s(g82
g173
tp6345
I0
s(g167
g94
tp6346
I0
s(g6
g190
tp6347
F0.81957971357989201
s(g74
g49
tp6348
I0
s(g31
g74
tp6349
I0
s(g61
g82
tp6350
I0
s(g118
g281
tp6351
I0
s(g37
g236
tp6352
I0
s(g167
g61
tp6353
I0
s(g11
g23
tp6354
I0
s(g295
g80
tp6355
I0
s(g222
g31
tp6356
I0
s(g59
g142
tp6357
I0
s(g105
g87
tp6358
I0
s(g115
g56
tp6359
I0
s(g14
g80
tp6360
I0
s(g65
g129
tp6361
I0
s(g236
g214
tp6362
I0
s(g173
g43
tp6363
I0
s(g82
g94
tp6364
I0
s(g25
g78
tp6365
I0
s(g65
g222
tp6366
I0
s(g15
g34
tp6367
I0
s(g35
g57
tp6368
I0
s(g234
g32
tp6369
I0
s(g49
g12
tp6370
I0
s(g84
g17
tp6371
I0
s(g72
g37
tp6372
I0
s(g61
g49
tp6373
I0
s(g57
g18
tp6374
I0
s(g90
g82
tp6375
I0
s(g167
g87
tp6376
I0
s(g91
g153
tp6377
I0
s(g158
g6
tp6378
I0
s(g146
g25
tp6379
I0
s(g12
g90
tp6380
I0
s(g96
g145
tp6381
I0
s(g118
g49
tp6382
I0
s(g142
g72
tp6383
I0
s(g38
g38
tp6384
F0.97297297297297292
s(g88
g133
tp6385
I0
s(g234
g11
tp6386
I0
s(g124
g234
tp6387
I0
s(g46
g49
tp6388
I0
s(g25
g53
tp6389
I0
s(g72
g82
tp6390
I0
s(g18
g74
tp6391
I0
s(g56
g51
tp6392
I0
s(g148
g37
tp6393
I0
s(g62
g9
tp6394
I0
s(g153
g18
tp6395
I0
s(g90
g148
tp6396
I0
s(g26
g90
tp6397
I0
s(g32
g51
tp6398
I0
s(g115
g164
tp6399
I0
s(g272
g43
tp6400
I0
s(g111
g71
tp6401
F0.99142249365264534
s(g3
g40
tp6402
I0
s(g57
g214
tp6403
I0
s(g37
g72
tp6404
I0
s(g90
g11
tp6405
I0
s(g37
g161
tp6406
I0
s(g234
g145
tp6407
I0
s(g53
g161
tp6408
I0
s(g37
g234
tp6409
I0
s(g26
g80
tp6410
I0
s(g61
g236
tp6411
I0
s(g102
g139
tp6412
I0
s(g69
g25
tp6413
I0
s(g91
g94
tp6414
I0
s(g6
g214
tp6415
I0
s(g110
g77
tp6416
I0
s(g96
g14
tp6417
I0
s(g35
g146
tp6418
I0
s(g26
g87
tp6419
I0
s(g190
g14
tp6420
I0
s(g46
g158
tp6421
I0
s(g234
g29
tp6422
I0
s(g146
g71
tp6423
I0
s(g111
g158
tp6424
I0
s(g41
g148
tp6425
I0
s(g142
g90
tp6426
I0
s(g77
g43
tp6427
I0
s(g124
g136
tp6428
I0
s(g102
g87
tp6429
I0
s(g51
g96
tp6430
I0
s(g57
g67
tp6431
I0
s(g90
g111
tp6432
I0
s(g21
g41
tp6433
I0
s(g74
g41
tp6434
I0
s(g65
g82
tp6435
I0
s(g90
g35
tp6436
I0
s(g23
g34
tp6437
I0
s(g118
g71
tp6438
I0
s(g9
g136
tp6439
I0
s(g49
g14
tp6440
I0
s(g59
g17
tp6441
I0
s(g25
g80
tp6442
F0.99947173798203903
s(g67
g35
tp6443
I0
s(g28
g102
tp6444
I0
s(g236
g51
tp6445
I0
s(g41
g15
tp6446
I0
s(g74
g87
tp6447
I0
s(g26
g94
tp6448
I0
s(g14
g90
tp6449
I0
s(g295
g136
tp6450
I0
s(g14
g17
tp6451
I0
s(g35
g100
tp6452
I0
s(g133
g69
tp6453
I0
s(g100
g115
tp6454
I0
s(g37
g167
tp6455
I0
s(g118
g96
tp6456
I0
s(g91
g74
tp6457
I0
s(g45
g190
tp6458
I0
s(g133
g145
tp6459
I0
s(g173
g110
tp6460
F0.98903937669734387
s(g122
g164
tp6461
I0
s(g161
g91
tp6462
I0
s(g15
g115
tp6463
I0
s(g122
g178
tp6464
I0
s(g158
g17
tp6465
I0
s(g295
g57
tp6466
I0
s(g214
g96
tp6467
I0
s(g142
g146
tp6468
I0
s(g142
g122
tp6469
I0
s(g91
g146
tp6470
I0
s(g23
g78
tp6471
I0
s(g153
g43
tp6472
I0
s(g53
g59
tp6473
I0
s(g29
g46
tp6474
I0
s(g111
g23
tp6475
I0
s(g45
g40
tp6476
I0
s(g118
g87
tp6477
I0
s(g40
g167
tp6478
I0
s(g214
g34
tp6479
I0
s(g21
g84
tp6480
I0
s(g80
g167
tp6481
I0
s(g43
g222
tp6482
I0
s(g88
g21
tp6483
I0
s(g46
g190
tp6484
I0
s(g96
g69
tp6485
I0
s(g272
g111
tp6486
I0
s(g118
g114
tp6487
I0
s(g71
g234
tp6488
I0
s(g6
g94
tp6489
I0
s(g272
g110
tp6490
I0
s(g178
g2
tp6491
I0
s(g107
g102
tp6492
I0
s(g45
g69
tp6493
I0
s(g236
g31
tp6494
I0
s(g38
g9
tp6495
I0
s(g164
g145
tp6496
I0
s(g96
g118
tp6497
I0
s(g28
g82
tp6498
F0.052074857607811227
s(g17
g94
tp6499
I0
s(g122
g35
tp6500
I0
s(g84
g56
tp6501
I0
s(g145
g18
tp6502
I0
s(g32
g80
tp6503
I0
s(g9
g62
tp6504
I0
s(g43
g161
tp6505
I0
s(g100
g78
tp6506
I0
s(g17
g61
tp6507
I0
s(g110
g17
tp6508
F0.30700345302993892
s(g71
g153
tp6509
I0
s(g295
g118
tp6510
I0
s(g158
g38
tp6511
I0
s(g8
g142
tp6512
I0
s(g122
g107
tp6513
I0
s(g281
g31
tp6514
I0
s(g51
g173
tp6515
I0
s(g214
g161
tp6516
I0
s(g295
g21
tp6517
I0
s(g41
g84
tp6518
I0
s(g57
g8
tp6519
I0
s(g167
g37
tp6520
I0
s(g8
g178
tp6521
I0
s(g74
g32
tp6522
I0
s(g136
g34
tp6523
I0
s(g84
g8
tp6524
I0
s(g94
g148
tp6525
I0
s(g90
g272
tp6526
I0
s(g43
g51
tp6527
I0
s(g17
g71
tp6528
I0
s(g136
g94
tp6529
I0
s(g91
g61
tp6530
I0
s(g214
g107
tp6531
I0
s(g214
g77
tp6532
I0
s(g91
g9
tp6533
I0
s(g110
g145
tp6534
I0
s(g41
g190
tp6535
I0
s(g122
g3
tp6536
I0
s(g25
g90
tp6537
I0
s(g9
g295
tp6538
I0
s(g281
g114
tp6539
I0
s(g34
g164
tp6540
I0
s(g17
g46
tp6541
I0
s(g115
g178
tp6542
I0
s(g53
g107
tp6543
I0
s(g114
g49
tp6544
I0
s(g72
g90
tp6545
I0
s(g65
g35
tp6546
I0
s(g84
g100
tp6547
I0
s(g38
g14
tp6548
I0
s(g161
g57
tp6549
I0
s(g74
g190
tp6550
I0
s(g114
g87
tp6551
I0
s(g43
g88
tp6552
I0
s(g6
g51
tp6553
I0
s(g32
g35
tp6554
I0
s(g80
g45
tp6555
I0
s(g17
g41
tp6556
I0
s(g84
g142
tp6557
I0
s(g23
g80
tp6558
I0
s(g46
g72
tp6559
I0
s(g6
g34
tp6560
I0
s(g114
g80
tp6561
I0
s(g40
g145
tp6562
I0
s(g272
g295
tp6563
I0
s(g59
g100
tp6564
I0
s(g222
g88
tp6565
I0
s(g62
g57
tp6566
I0
s(g9
g146
tp6567
F0.99452392360873443
s(g234
g67
tp6568
I0
s(g100
g111
tp6569
I0
s(g281
g124
tp6570
I0
s(g69
g153
tp6571
I0
s(g29
g28
tp6572
I0
s(g67
g62
tp6573
I0
s(g234
g46
tp6574
I0
s(g161
g67
tp6575
I0
s(g29
g158
tp6576
I0
s(g11
g77
tp6577
F0.26442307692307693
s(g18
g295
tp6578
I0
s(g87
g43
tp6579
I0
s(g49
g161
tp6580
I0
s(g96
g222
tp6581
I0
s(g71
g21
tp6582
I0
s(g26
g84
tp6583
I0
s(g87
g136
tp6584
I0
s(g90
g94
tp6585
I0
s(g32
g78
tp6586
I0
s(g173
g6
tp6587
I0
s(g11
g272
tp6588
I0
s(g281
g35
tp6589
I0
s(g61
g111
tp6590
I0
s(g74
g153
tp6591
I0
s(g148
g114
tp6592
I0
s(g96
g148
tp6593
I0
s(g17
g82
tp6594
I0
s(g110
g158
tp6595
I0
s(g29
g15
tp6596
I0
s(g29
g61
tp6597
I0
s(g3
g173
tp6598
I0
s(g62
g94
tp6599
I0
s(g35
g110
tp6600
I0
s(g26
g28
tp6601
I0
s(g107
g69
tp6602
I0
s(g14
g74
tp6603
I0
s(g41
g158
tp6604
I0
s(g53
g28
tp6605
I0
s(g122
g84
tp6606
I0
s(g102
g96
tp6607
I0
s(g9
g91
tp6608
I0
s(g115
g3
tp6609
I0
s(g61
g115
tp6610
I0
s(g80
g40
tp6611
I0
s(g67
g158
tp6612
I0
s(g114
g35
tp6613
I0
s(g214
g122
tp6614
I0
s(g114
g26
tp6615
I0
s(g8
g20
tp6616
I0
s(g84
g146
tp6617
I0
s(g21
g38
tp6618
I0
s(g133
g82
tp6619
I0
s(g26
g234
tp6620
I0
s(g102
g142
tp6621
I0
s(g8
g281
tp6622
I0
s(g122
g82
tp6623
I0
s(g78
g18
tp6624
I0
s(g72
g26
tp6625
I0
s(g107
g173
tp6626
I0
s(g71
g62
tp6627
I0
s(g122
g94
tp6628
I0
s(g153
g25
tp6629
I0
s(g53
g190
tp6630
I0
s(g80
g87
tp6631
I0
s(g18
g87
tp6632
I0
s(g45
g61
tp6633
I0
s(g51
g122
tp6634
I0
s(g17
g158
tp6635
I0
s(g35
g18
tp6636
I0
s(g118
g12
tp6637
I0
s(g9
g11
tp6638
I0
s(g67
g67
tp6639
F0.99490366687383469
s(g57
g102
tp6640
I0
s(g146
g3
tp6641
I0
s(g25
g214
tp6642
I0
s(g65
g45
tp6643
I0
s(g2
g158
tp6644
I0
s(g164
g57
tp6645
I0
s(g74
g88
tp6646
I0
s(g139
g122
tp6647
I0
s(g77
g102
tp6648
I0
s(g15
g11
tp6649
I0
s(g167
g53
tp6650
I0
s(g94
g80
tp6651
I0
s(g236
g21
tp6652
I0
s(g105
g214
tp6653
I0
s(g90
g53
tp6654
I0
s(g17
g77
tp6655
I0
s(g17
g78
tp6656
I0
s(g110
g190
tp6657
I0
s(g167
g145
tp6658
I0
s(g234
g234
tp6659
F0.48101265822784811
s(g161
g6
tp6660
I0
s(g236
g148
tp6661
I0
s(g51
g12
tp6662
I0
s(g37
g26
tp6663
I0
s(g49
g77
tp6664
I0
s(g295
g18
tp6665
I0
s(g69
g115
tp6666
I0
s(g62
g28
tp6667
I0
s(g111
g41
tp6668
I0
s(g23
g31
tp6669
I0
s(g34
g122
tp6670
I0
s(g69
g57
tp6671
I0
s(g133
g61
tp6672
I0
s(g71
g17
tp6673
I0
s(g167
g100
tp6674
I0
s(g21
g122
tp6675
I0
s(g124
g32
tp6676
I0
s(g295
g74
tp6677
I0
s(g148
g88
tp6678
I0
s(g32
g105
tp6679
I0
s(g234
g17
tp6680
I0
s(g118
g88
tp6681
I0
s(g80
g82
tp6682
I0
s(g29
g32
tp6683
I0
s(g11
g61
tp6684
I0
s(g145
g38
tp6685
I0
s(g115
g90
tp6686
I0
s(g164
g281
tp6687
I0
s(g43
g35
tp6688
I0
s(g38
g23
tp6689
I0
s(g35
g91
tp6690
I0
s(g28
g78
tp6691
I0
s(g11
g110
tp6692
I0
s(g11
g94
tp6693
I0
s(g15
g234
tp6694
I0
s(g102
g6
tp6695
I0
s(g56
g28
tp6696
I0
s(g34
g5
tp6697
I0
s(g107
g139
tp6698
I0
s(g158
g222
tp6699
I0
s(g78
g53
tp6700
I0
s(g167
g46
tp6701
I0
s(g41
g18
tp6702
I0
s(g40
g37
tp6703
I0
s(g136
g69
tp6704
I0
s(g72
g118
tp6705
I0
s(g77
g133
tp6706
I0
s(g96
g158
tp6707
I0
s(g49
g65
tp6708
I0
s(g102
g91
tp6709
I0
s(g45
g12
tp6710
I0
s(g214
g11
tp6711
I0
s(g80
g11
tp6712
I0
s(g8
g190
tp6713
I0
s(g49
g107
tp6714
I0
s(g88
g281
tp6715
I0
s(g236
g88
tp6716
I0
s(g74
g91
tp6717
I0
s(g96
g124
tp6718
I0
s(g145
g9
tp6719
I0
s(g281
g57
tp6720
I0
s(g129
g38
tp6721
I0
s(g43
g69
tp6722
I0
s(g20
g133
tp6723
I0
s(g82
g43
tp6724
I0
s(g96
g38
tp6725
I0
s(g102
g222
tp6726
I0
s(g45
g34
tp6727
I0
s(g145
g11
tp6728
I0
s(g146
g145
tp6729
I0
s(g78
g91
tp6730
I0
s(g115
g139
tp6731
I0
s(g28
g59
tp6732
I0
s(g133
g49
tp6733
I0
s(g178
g15
tp6734
I0
s(g40
g23
tp6735
I0
s(g12
g9
tp6736
I0
s(g173
g53
tp6737
I0
s(g173
g25
tp6738
I0
s(g281
g136
tp6739
I0
s(g94
g53
tp6740
I0
s(g234
g107
tp6741
I0
s(g107
g146
tp6742
I0
s(g18
g173
tp6743
I0
s(g91
g62
tp6744
I0
s(g146
g124
tp6745
I0
s(g272
g6
tp6746
I0
s(g53
g74
tp6747
I0
s(g11
g49
tp6748
I0
s(g110
g15
tp6749
I0
s(g28
g2
tp6750
I0
s(g114
g88
tp6751
I0
s(g139
g87
tp6752
I0
s(g82
g2
tp6753
I0
s(g62
g96
tp6754
I0
s(g43
g25
tp6755
I0
s(g102
g26
tp6756
I0
s(g3
g90
tp6757
I0
s(g23
g190
tp6758
I0
s(g56
g9
tp6759
I0
s(g59
g3
tp6760
I0
s(g110
g2
tp6761
I0
s(g62
g72
tp6762
I0
s(g29
g18
tp6763
I0
s(g40
g234
tp6764
I0
s(g71
g37
tp6765
I0
s(g148
g272
tp6766
I0
s(g23
g46
tp6767
I0
s(g2
g15
tp6768
I0
s(g25
g105
tp6769
I0
s(g53
g67
tp6770
I0
s(g2
g173
tp6771
I0
s(g3
g57
tp6772
I0
s(g82
g110
tp6773
I0
s(g190
g222
tp6774
I0
s(g281
g161
tp6775
I0
s(g71
g32
tp6776
I0
s(g41
g77
tp6777
I0
s(g57
g90
tp6778
I0
s(g139
g281
tp6779
I0
s(g56
g80
tp6780
I0
s(g61
g46
tp6781
I0
s(g122
g129
tp6782
I0
s(g62
g281
tp6783
I0
s(g46
g178
tp6784
I0
s(g178
g96
tp6785
I0
s(g31
g102
tp6786
I0
s(g71
g281
tp6787
I0
s(g51
g94
tp6788
I0
s(g65
g67
tp6789
I0
s(g46
g80
tp6790
I0
s(g2
g110
tp6791
I0
s(g107
g12
tp6792
I0
s(g167
g158
tp6793
I0
s(g214
g3
tp6794
I0
s(g90
g234
tp6795
I0
s(g214
g295
tp6796
I0
s(g3
g35
tp6797
I0
s(g23
g59
tp6798
I0
s(g56
g31
tp6799
I0
s(g37
g80
tp6800
I0
s(g51
g295
tp6801
I0
s(g111
g82
tp6802
I0
s(g77
g136
tp6803
I0
s(g43
g74
tp6804
I0
s(g46
g82
tp6805
I0
s(g17
g136
tp6806
I0
s(g37
g107
tp6807
I0
s(g136
g11
tp6808
I0
s(g59
g46
tp6809
I0
s(g2
g145
tp6810
I0
s(g28
g234
tp6811
I0
s(g18
g118
tp6812
I0
s(g114
g82
tp6813
I0
s(g167
g3
tp6814
I0
s(g88
g31
tp6815
I0
s(g91
g40
tp6816
I0
s(g272
g71
tp6817
I0
s(g110
g32
tp6818
I0
s(g161
g133
tp6819
I0
s(g167
g78
tp6820
I0
s(g145
g80
tp6821
I0
s(g145
g295
tp6822
I0
s(g96
g100
tp6823
I0
s(g23
g28
tp6824
I0
s(g234
g222
tp6825
I0
s(g236
g129
tp6826
I0
s(g31
g69
tp6827
I0
s(g129
g139
tp6828
I0
s(g222
g43
tp6829
I0
s(g12
g87
tp6830
I0
s(g31
g57
tp6831
I0
s(g67
g53
tp6832
I0
s(g133
g15
tp6833
I0
s(g74
g45
tp6834
I0
s(g115
g29
tp6835
I0
s(g88
g107
tp6836
I0
s(g71
g65
tp6837
I0
s(g40
g87
tp6838
I0
s(g272
g5
tp6839
I0
s(g94
g40
tp6840
I0
s(g148
g84
tp6841
I0
s(g173
g40
tp6842
I0
s(g72
g77
tp6843
I0
s(g69
g56
tp6844
I0
s(g107
g25
tp6845
I0
s(g74
g2
tp6846
I0
s(g214
g5
tp6847
I0
s(g145
g65
tp6848
I0
s(g110
g59
tp6849
I0
s(g91
g11
tp6850
I0
s(g69
g9
tp6851
I0
s(g158
g67
tp6852
I0
s(g37
g96
tp6853
I0
s(g153
g173
tp6854
I0
s(g164
g105
tp6855
I0
s(g214
g18
tp6856
I0
s(g21
g105
tp6857
I0
s(g87
g133
tp6858
I0
s(g59
g190
tp6859
I0
s(g40
g61
tp6860
I0
s(g37
g6
tp6861
I0
s(g46
g124
tp6862
I0
s(g90
g118
tp6863
I0
s(g61
g158
tp6864
I0
s(g34
g9
tp6865
I0
s(g11
g62
tp6866
I0
s(g87
g114
tp6867
I0
s(g214
g67
tp6868
I0
s(g91
g161
tp6869
I0
s(g59
g173
tp6870
I0
s(g69
g26
tp6871
I0
s(g14
g72
tp6872
I0
s(g2
g190
tp6873
I0
s(g146
g2
tp6874
I0
s(g14
g53
tp6875
I0
s(g59
g56
tp6876
I0
s(g35
g105
tp6877
I0
s(g110
g43
tp6878
I0
s(g190
g26
tp6879
I0
s(g78
g46
tp6880
I0
s(g25
g84
tp6881
I0
s(g105
g35
tp6882
I0
s(g31
g142
tp6883
I0
s(g153
g71
tp6884
I0
s(g88
g129
tp6885
I0
s(g17
g8
tp6886
I0
s(g37
g222
tp6887
I0
s(g153
g74
tp6888
I0
s(g90
g59
tp6889
I0
s(g37
g29
tp6890
I0
s(g118
g26
tp6891
I0
s(g43
g46
tp6892
I0
s(g164
g111
tp6893
I0
s(g3
g82
tp6894
I0
s(g17
g96
tp6895
I0
s(g26
g41
tp6896
I0
s(g29
g91
tp6897
I0
s(g74
g6
tp6898
I0
s(g37
g51
tp6899
I0
s(g94
g153
tp6900
I0
s(g8
g90
tp6901
I0
s(g23
g158
tp6902
I0
s(g80
g28
tp6903
I0
s(g164
g3
tp6904
I0
s(g107
g161
tp6905
I0
s(g153
g56
tp6906
I0
s(g29
g122
tp6907
I0
s(g25
g142
tp6908
I0
s(g65
g37
tp6909
I0
s(g87
g51
tp6910
I0
s(g51
g222
tp6911
I0
s(g43
g84
tp6912
I0
s(g74
g59
tp6913
I0
s(g102
g145
tp6914
I0
s(g164
g91
tp6915
I0
s(g90
g40
tp6916
I0
s(g11
g148
tp6917
I0
s(g96
g214
tp6918
I0
s(g100
g124
tp6919
I0
s(g34
g146
tp6920
I0
s(g102
g190
tp6921
I0
s(g91
g57
tp6922
I0
s(g105
g90
tp6923
I0
s(g178
g214
tp6924
I0
s(g38
g145
tp6925
I0
s(g84
g105
tp6926
I0
s(g94
g45
tp6927
I0
s(g29
g45
tp6928
I0
s(g146
g14
tp6929
I0
s(g87
g142
tp6930
I0
s(g88
g214
tp6931
I0
s(g45
g100
tp6932
I0
s(g26
g21
tp6933
I0
s(g178
g17
tp6934
I0
s(g153
g12
tp6935
I0
s(g18
g82
tp6936
I0
s(g178
g136
tp6937
I0
s(g115
g49
tp6938
I0
s(g115
g69
tp6939
I0
s(g100
g178
tp6940
I0
s(g124
g51
tp6941
I0
s(g29
g96
tp6942
I0
s(g12
g72
tp6943
I0
s(g37
g14
tp6944
I0
s(g139
g35
tp6945
I0
s(g28
g90
tp6946
I0
s(g164
g49
tp6947
I0
s(g214
g173
tp6948
I0
s(g173
g173
tp6949
F0.79292929292929293
s(g82
g295
tp6950
I0
s(g153
g139
tp6951
I0
s(g133
g5
tp6952
I0
s(g84
g164
tp6953
I0
s(g11
g111
tp6954
I0
s(g158
g102
tp6955
I0
s(g65
g124
tp6956
I0
s(g8
g272
tp6957
I0
s(g124
g124
tp6958
F0.43181818181818182
s(g178
g43
tp6959
I0
s(g100
g100
tp6960
F0.45270270270270269
s(g14
g11
tp6961
I0
s(g136
g40
tp6962
I0
s(g34
g29
tp6963
I0
s(g2
g12
tp6964
I0
s(g6
g61
tp6965
I0
s(g21
g77
tp6966
I0
s(g74
g122
tp6967
I0
s(g222
g17
tp6968
I0
s(g142
g102
tp6969
I0
s(g67
g295
tp6970
I0
s(g46
g173
tp6971
I0
s(g53
g136
tp6972
I0
s(g129
g295
tp6973
I0
s(g26
g71
tp6974
I0
s(g41
g295
tp6975
I0
s(g2
g80
tp6976
I0
s(g129
g124
tp6977
I0
s(g124
g6
tp6978
I0
s(g15
g148
tp6979
I0
s(g281
g59
tp6980
I0
s(g15
g9
tp6981
I0
s(g142
g84
tp6982
I0
s(g53
g82
tp6983
I0
s(g69
g5
tp6984
I0
s(g80
g124
tp6985
I0
s(g161
g74
tp6986
I0
s(g56
g53
tp6987
I0
s(g9
g57
tp6988
I0
s(g105
g94
tp6989
I0
s(g122
g88
tp6990
I0
s(g40
g40
tp6991
F0.99661066017036759
s(g236
g295
tp6992
I0
s(g74
g236
tp6993
I0
s(g28
g146
tp6994
I0
s(g2
g61
tp6995
I0
s(g61
g94
tp6996
I0
s(g8
g145
tp6997
I0
s(g29
g295
tp6998
I0
s(g88
g82
tp6999
I0
s(g71
g107
tp7000
I0
s(g5
g62
tp7001
I0
s(g11
g133
tp7002
I0
s(g82
g12
tp7003
I0
s(g91
g105
tp7004
I0
s(g34
g153
tp7005
I0
s(g105
g57
tp7006
I0
s(g102
g153
tp7007
I0
s(g295
g45
tp7008
I0
s(g72
g87
tp7009
I0
s(g40
g88
tp7010
I0
s(g100
g21
tp7011
I0
s(g129
g12
tp7012
I0
s(g100
g28
tp7013
I0
s(g12
g25
tp7014
I0
s(g91
g56
tp7015
I0
s(g15
g8
tp7016
I0
s(g59
g167
tp7017
I0
s(g107
g56
tp7018
I0
s(g25
g41
tp7019
I0
s(g61
g71
tp7020
I0
s(g17
g87
tp7021
I0
s(g43
g122
tp7022
I0
s(g29
g43
tp7023
I0
s(g40
g136
tp7024
I0
s(g281
g139
tp7025
I0
s(g72
g9
tp7026
I0
s(g139
g118
tp7027
I0
s(g105
g71
tp7028
I0
s(g71
g164
tp7029
I0
s(g12
g77
tp7030
I0
s(g94
g21
tp7031
I0
s(g26
g96
tp7032
I0
s(g72
g17
tp7033
I0
s(g12
g78
tp7034
I0
s(g40
g62
tp7035
I0
s(g62
g136
tp7036
I0
s(g20
g51
tp7037
I0
s(g65
g114
tp7038
I0
s(g38
g148
tp7039
I0
s(g118
g91
tp7040
I0
s(g84
g272
tp7041
I0
s(g84
g18
tp7042
I0
s(g43
g53
tp7043
I0
s(g87
g35
tp7044
I0
s(g56
g164
tp7045
I0
s(g105
g118
tp7046
I0
s(g77
g56
tp7047
I0
s(g153
g29
tp7048
I0
s(g28
g77
tp7049
I0
s(g34
g94
tp7050
I0
s(g34
g145
tp7051
I0
s(g35
g38
tp7052
I0
s(g12
g281
tp7053
I0
s(g14
g153
tp7054
I0
s(g87
g32
tp7055
I0
s(g80
g234
tp7056
I0
s(g57
g100
tp7057
I0
s(g41
g9
tp7058
I0
s(g69
g295
tp7059
I0
s(g40
g281
tp7060
I0
s(g32
g295
tp7061
I0
s(g102
g173
tp7062
I0
s(g142
g142
tp7063
F0.94827586206896552
s(g164
g222
tp7064
I0
s(g114
g164
tp7065
I0
s(g17
g57
tp7066
I0
s(g26
g161
tp7067
I0
s(g14
g110
tp7068
I0
s(g100
g272
tp7069
I0
s(g15
g178
tp7070
I0
s(g281
g77
tp7071
I0
s(g153
g67
tp7072
I0
s(g3
g94
tp7073
I0
s(g38
g72
tp7074
I0
s(g40
g100
tp7075
I0
s(g2
g34
tp7076
I0
s(g139
g65
tp7077
I0
s(g94
g72
tp7078
I0
s(g29
g136
tp7079
I0
s(g65
g142
tp7080
I0
s(g29
g57
tp7081
I0
s(g65
g88
tp7082
I0
s(g56
g214
tp7083
I0
s(g35
g23
tp7084
I0
s(g82
g80
tp7085
I0
s(g94
g142
tp7086
I0
s(g87
g21
tp7087
I0
s(g90
g173
tp7088
I0
s(g71
g14
tp7089
I0
s(g114
g38
tp7090
I0
s(g51
g77
tp7091
I0
s(g28
g34
tp7092
I0
s(g31
g161
tp7093
I0
s(g31
g122
tp7094
I0
s(g53
g34
tp7095
I0
s(g88
g57
tp7096
I0
s(g148
g34
tp7097
I0
s(g5
g26
tp7098
I0
s(g173
g14
tp7099
I0
s(g136
g214
tp7100
I0
s(g32
g17
tp7101
I0
s(g34
g62
tp7102
I0
s(g23
g15
tp7103
I0
s(g41
g46
tp7104
I0
s(g139
g8
tp7105
I0
s(g65
g272
tp7106
I0
s(g82
g105
tp7107
I0
s(g129
g21
tp7108
I0
s(g69
g59
tp7109
I0
s(g5
g40
tp7110
I0
s(g62
g295
tp7111
I0
s(g148
g29
tp7112
I0
s(g40
g80
tp7113
I0
s(g69
g51
tp7114
I0
s(g88
g84
tp7115
I0
s(g90
g29
tp7116
I0
s(g78
g281
tp7117
I0
s(g234
g164
tp7118
I0
s(g153
g236
tp7119
I0
s(g167
g167
tp7120
F0.94117647058823528
s(g45
g142
tp7121
I0
s(g91
g65
tp7122
I0
s(g118
g57
tp7123
I0
s(g3
g214
tp7124
I0
s(g161
g40
tp7125
I0
s(g31
g11
tp7126
I0
s(g105
g145
tp7127
I0
s(g56
g222
tp7128
I0
s(g105
g190
tp7129
I0
s(g78
g161
tp7130
I0
s(g114
g23
tp7131
I0
s(g94
g26
tp7132
I0
s(g69
g90
tp7133
I0
s(g178
g77
tp7134
I0
s(g3
g26
tp7135
I0
s(g20
g102
tp7136
I0
s(g107
g133
tp7137
I0
s(g69
g53
tp7138
I0
s(g38
g6
tp7139
I0
s(g153
g57
tp7140
I0
s(g17
g118
tp7141
I0
s(g8
g139
tp7142
I0
s(g23
g178
tp7143
I0
s(g69
g72
tp7144
I0
s(g236
g142
tp7145
I0
s(g37
g118
tp7146
I0
s(g56
g29
tp7147
I0
s(g115
g129
tp7148
I0
s(g145
g12
tp7149
I0
s(g14
g145
tp7150
F0.99399496351778915
s(g281
g49
tp7151
I0
s(g96
g9
tp7152
I0
s(g102
g35
tp7153
I0
s(g222
g91
tp7154
I0
s(g41
g5
tp7155
I0
s(g124
g43
tp7156
I0
s(g153
g17
tp7157
I0
s(g53
g164
tp7158
I0
s(g29
g12
tp7159
F0.93333333333333335
s(g74
g31
tp7160
I0
s(g78
g62
tp7161
I0
s(g35
g12
tp7162
I0
s(g190
g3
tp7163
I0
s(g133
g9
tp7164
I0
s(g272
g234
tp7165
I0
s(g9
g90
tp7166
I0
s(g118
g107
tp7167
I0
s(g51
g9
tp7168
I0
s(g111
g214
tp7169
I0
s(g190
g51
tp7170
I0
s(g38
g122
tp7171
I0
s(g173
g80
tp7172
I0
s(g17
g173
tp7173
I0
s(g234
g2
tp7174
I0
s(g102
g105
tp7175
F0.98576779026217221
s(g65
g96
tp7176
I0
s(g11
g43
tp7177
I0
s(g91
g8
tp7178
I0
s(g11
g118
tp7179
I0
s(g23
g145
tp7180
I0
s(g25
g178
tp7181
I0
s(g26
g214
tp7182
I0
s(g72
g110
tp7183
I0
s(g146
g122
tp7184
I0
s(g37
g61
tp7185
I0
s(g5
g61
tp7186
I0
s(g2
g17
tp7187
I0
s(g20
g35
tp7188
I0
s(g94
g84
tp7189
I0
s(g40
g124
tp7190
I0
s(g46
g41
tp7191
I0
s(g51
g59
tp7192
I0
s(g214
g178
tp7193
I0
s(g35
g145
tp7194
I0
s(g61
g80
tp7195
I0
s(g164
g236
tp7196
I0
s(g43
g295
tp7197
I0
s(g96
g167
tp7198
I0
s(g8
g26
tp7199
I0
s(g6
g26
tp7200
I0
s(g114
g102
tp7201
I0
s(g167
g124
tp7202
I0
s(g40
g2
tp7203
I0
s(g51
g6
tp7204
I0
s(g91
g222
tp7205
I0
s(g35
g167
tp7206
I0
s(g61
g53
tp7207
I0
s(g25
g234
tp7208
I0
s(g20
g29
tp7209
I0
s(g8
g234
tp7210
I0
s(g139
g111
tp7211
I0
s(g8
g51
tp7212
I0
s(g51
g25
tp7213
I0
s(g67
g8
tp7214
I0
s(g45
g84
tp7215
I0
s(g45
g26
tp7216
I0
s(g105
g67
tp7217
I0
s(g91
g142
tp7218
I0
s(g272
g190
tp7219
I0
s(g122
g59
tp7220
I0
s(g90
g153
tp7221
I0
s(g136
g46
tp7222
I0
s(g20
g5
tp7223
I0
s(g102
g107
tp7224
I0
s(g82
g38
tp7225
I0
s(g78
g23
tp7226
I0
s(g96
g2
tp7227
I0
s(g111
g90
tp7228
I0
s(g77
g40
tp7229
I0
s(g107
g148
tp7230
I0
s(g214
g129
tp7231
I0
s(g122
g26
tp7232
I0
s(g23
g5
tp7233
I0
s(g236
g87
tp7234
I0
s(g43
g114
tp7235
I0
s(g15
g2
tp7236
I0
s(g74
g82
tp7237
I0
s(g102
g62
tp7238
I0
s(g3
g272
tp7239
I0
s(g77
g129
tp7240
I0
s(g133
g272
tp7241
I0
s(g8
g214
tp7242
I0
s(g129
g2
tp7243
I0
s(g145
g114
tp7244
I0
s(g145
g3
tp7245
I0
s(g61
g281
tp7246
I0
s(g122
g78
tp7247
I0
s(g153
g65
tp7248
I0
s(g65
g214
tp7249
I0
s(g167
g25
tp7250
I0
s(g9
g178
tp7251
I0
s(g295
g236
tp7252
I0
s(g281
g46
tp7253
I0
s(g57
g41
tp7254
I0
s(g21
g5
tp7255
I0
s(g190
g74
tp7256
I0
s(g295
g78
tp7257
I0
s(g115
g84
tp7258
I0
s(g57
g122
tp7259
I0
s(g34
g17
tp7260
I0
s(g8
g133
tp7261
I0
s(g96
g272
tp7262
I0
s(g56
g49
tp7263
I0
s(g53
g80
tp7264
I0
s(g20
g25
tp7265
I0
s(g167
g49
tp7266
I0
s(g80
g56
tp7267
I0
s(g236
g94
tp7268
I0
s(g69
g20
tp7269
I0
s(g56
g178
tp7270
I0
s(g62
g118
tp7271
I0
s(g142
g100
tp7272
I0
s(g17
g74
tp7273
I0
s(g118
g51
tp7274
I0
s(g190
g25
tp7275
I0
s(g139
g148
tp7276
I0
s(g222
g139
tp7277
I0
s(g67
g91
tp7278
I0
s(g129
g56
tp7279
I0
s(g57
g2
tp7280
I0
s(g12
g3
tp7281
I0
s(g18
g190
tp7282
I0
s(g107
g94
tp7283
I0
s(g124
g78
tp7284
I0
s(g158
g80
tp7285
I0
s(g34
g32
tp7286
I0
s(g222
g234
tp7287
I0
s(g56
g32
tp7288
I0
s(g9
g5
tp7289
I0
s(g236
g38
tp7290
I0
s(g94
g34
tp7291
I0
s(g61
g136
tp7292
I0
s(g2
g67
tp7293
I0
s(g82
g8
tp7294
I0
s(g3
g72
tp7295
I0
s(g15
g129
tp7296
I0
s(g12
g145
tp7297
I0
s(g91
g272
tp7298
I0
s(g161
g11
tp7299
I0
s(g90
g105
tp7300
I0
s(g136
g90
tp7301
I0
s(g3
g46
tp7302
I0
s(g14
g107
tp7303
I0
s(g173
g46
tp7304
I0
s(g272
g53
tp7305
I0
s(g281
g26
tp7306
I0
s(g88
g34
tp7307
I0
s(g61
g88
tp7308
I0
s(g190
g107
tp7309
I0
s(g46
g234
tp7310
I0
s(g5
g87
tp7311
I0
s(g133
g80
tp7312
I0
s(g3
g153
tp7313
I0
s(g139
g62
tp7314
I0
s(g222
g23
tp7315
I0
s(g11
g122
tp7316
I0
s(g295
g65
tp7317
I0
s(g124
g31
tp7318
I0
s(g26
g115
tp7319
I0
s(g234
g56
tp7320
I0
s(g234
g214
tp7321
I0
s(g96
g5
tp7322
I0
s(g5
g31
tp7323
I0
s(g9
g158
tp7324
I0
s(g236
g40
tp7325
I0
s(g90
g25
tp7326
I0
s(g51
g272
tp7327
I0
s(g31
g114
tp7328
I0
s(g37
g40
tp7329
I0
s(g167
g173
tp7330
I0
s(g142
g2
tp7331
I0
s(g142
g20
tp7332
I0
s(g2
g161
tp7333
I0
s(g110
g122
tp7334
I0
s(g234
g38
tp7335
I0
s(g148
g222
tp7336
I0
s(g53
g40
tp7337
I0
s(g173
g11
tp7338
I0
s(g281
g56
tp7339
I0
s(g59
g57
tp7340
I0
s(g28
g40
tp7341
I0
s(g23
g124
tp7342
I0
s(g145
g96
tp7343
I0
s(g41
g272
tp7344
I0
s(g136
g35
tp7345
I0
s(g41
g91
tp7346
I0
s(g71
g11
tp7347
I0
s(g129
g40
tp7348
F0.9957658421763671
s(g158
g2
tp7349
I0
s(g20
g28
tp7350
I0
s(g9
g74
tp7351
I0
s(g91
g139
tp7352
I0
s(g59
g164
tp7353
I0
s(g115
g142
tp7354
I0
s(g3
g11
tp7355
I0
s(g78
g37
tp7356
I0
s(g236
g56
tp7357
I0
s(g37
g21
tp7358
I0
s(g17
g124
tp7359
I0
s(g214
g41
tp7360
I0
s(g72
g2
tp7361
I0
s(g173
g65
tp7362
I0
s(g148
g31
tp7363
I0
s(g5
g82
tp7364
I0
s(g78
g142
tp7365
I0
s(g46
g88
tp7366
I0
s(g139
g94
tp7367
I0
s(g46
g236
tp7368
I0
s(g145
g20
tp7369
I0
s(g20
g281
tp7370
I0
s(g69
g190
tp7371
I0
s(g49
g9
tp7372
I0
s(g74
g40
tp7373
I0
s(g12
g118
tp7374
I0
s(g56
g236
tp7375
I0
s(g23
g114
tp7376
I0
s(g38
g45
tp7377
I0
s(g118
g41
tp7378
I0
s(g161
g69
tp7379
I0
s(g114
g114
tp7380
F0.5
s(g20
g161
tp7381
I0
s(g272
g178
tp7382
I0
s(g110
g57
tp7383
I0
s(g69
g14
tp7384
I0
s(g148
g11
tp7385
I0
s(g35
g142
tp7386
I0
s(g37
g20
tp7387
I0
s(g41
g14
tp7388
I0
s(g23
g45
tp7389
I0
s(g88
g88
tp7390
F0.99219121988382064
s(g153
g15
tp7391
I0
s(g23
g164
tp7392
I0
s(g69
g15
tp7393
I0
s(g53
g100
tp7394
I0
s(g114
g281
tp7395
I0
s(g167
g91
tp7396
I0
s(g236
g14
tp7397
I0
s(g167
g133
tp7398
I0
s(g136
g167
tp7399
I0
s(g38
g40
tp7400
I0
s(g115
g17
tp7401
I0
s(g67
g153
tp7402
F0.47126436781609193
s(g105
g46
tp7403
I0
s(g18
g161
tp7404
I0
s(g173
g5
tp7405
I0
s(g96
g142
tp7406
I0
s(g167
g72
tp7407
I0
s(g20
g295
tp7408
I0
s(g102
g158
tp7409
I0
s(g8
g107
tp7410
I0
s(g21
g161
tp7411
I0
s(g87
g25
tp7412
I0
s(g9
g6
tp7413
I0
s(g12
g43
tp7414
I0
s(g129
g29
tp7415
I0
s(g153
g8
tp7416
I0
s(g20
g136
tp7417
I0
s(g29
g59
tp7418
I0
s(g61
g173
tp7419
I0
s(g14
g78
tp7420
I0
s(g14
g129
tp7421
I0
s(g29
g124
tp7422
I0
s(g67
g88
tp7423
I0
s(g173
g57
tp7424
I0
s(g139
g26
tp7425
I0
s(g178
g34
tp7426
I0
s(g26
g35
tp7427
I0
s(g29
g222
tp7428
I0
s(g96
g173
tp7429
I0
s(g178
g41
tp7430
I0
s(g41
g51
tp7431
I0
s(g15
g25
tp7432
I0
s(g49
g69
tp7433
I0
s(g35
g29
tp7434
I0
s(g20
g3
tp7435
I0
s(g110
g107
tp7436
I0
s(g37
g65
tp7437
I0
s(g90
g122
tp7438
I0
s(g236
g35
tp7439
I0
s(g15
g281
tp7440
I0
s(g102
g78
tp7441
I0
s(g281
g133
tp7442
I0
s(g6
g72
tp7443
I0
s(g190
g84
tp7444
I0
s(g35
g234
tp7445
I0
s(g31
g20
tp7446
I0
s(g46
g61
tp7447
F0.93333333333333335
s(g71
g69
tp7448
I0
s(g87
g3
tp7449
I0
s(g23
g96
tp7450
I0
s(g161
g111
tp7451
I0
s(g6
g129
tp7452
I0
s(g107
g110
tp7453
I0
s(g214
g31
tp7454
I0
s(g56
g61
tp7455
I0
s(g102
g61
tp7456
I0
s(g178
g110
tp7457
I0
s(g46
g87
tp7458
I0
s(g146
g26
tp7459
I0
s(g178
g67
tp7460
I0
s(g90
g167
tp7461
I0
s(g67
g222
tp7462
I0
s(g136
g82
tp7463
I0
s(g43
g8
tp7464
I0
s(g18
g167
tp7465
I0
s(g15
g164
tp7466
I0
s(g94
g9
tp7467
I0
s(g111
g21
tp7468
I0
s(g146
g40
tp7469
I0
s(g115
g43
tp7470
I0
s(g71
g173
tp7471
I0
s(g71
g90
tp7472
I0
s(g69
g12
tp7473
I0
s(g34
g115
tp7474
I0
s(g153
g26
tp7475
I0
s(g15
g114
tp7476
I0
s(g118
g2
tp7477
I0
s(g32
g107
tp7478
I0
s(g14
g40
tp7479
I0
s(g62
g21
tp7480
I0
s(g53
g41
tp7481
I0
s(g74
g167
tp7482
I0
s(g32
g29
tp7483
I0
s(g146
g102
tp7484
I0
s(g78
g102
tp7485
I0
s(g8
g136
tp7486
I0
s(g146
g34
tp7487
I0
s(g40
g57
tp7488
I0
s(g38
g91
tp7489
I0
s(g3
g38
tp7490
I0
s(g82
g133
tp7491
I0
s(g142
g29
tp7492
I0
s(g234
g146
tp7493
I0
s(g46
g107
tp7494
I0
s(g23
g49
tp7495
I0
s(g145
g51
tp7496
I0
s(g124
g41
tp7497
I0
s(g2
g5
tp7498
I0
s(g107
g77
tp7499
I0
s(g107
g51
tp7500
I0
s(g82
g88
tp7501
I0
s(g164
g61
tp7502
I0
s(g100
g37
tp7503
I0
s(g41
g38
tp7504
I0
s(g136
g65
tp7505
I0
s(g100
g38
tp7506
I0
s(g178
g100
tp7507
I0
s(g45
g17
tp7508
I0
s(g61
g87
tp7509
I0
s(g80
g84
tp7510
I0
s(g12
g20
tp7511
I0
s(g234
g178
tp7512
I0
s(g25
g173
tp7513
I0
s(g281
g14
tp7514
I0
s(g59
g5
tp7515
I0
s(g8
g56
tp7516
I0
s(g167
g272
tp7517
I0
s(g18
g35
tp7518
I0
s(g61
g74
tp7519
I0
s(g12
g46
tp7520
I0
s(g11
g45
tp7521
I0
s(g214
g12
tp7522
I0
s(g25
g2
tp7523
I0
s(g153
g5
tp7524
I0
s(g133
g107
tp7525
I0
s(g34
g78
tp7526
I0
s(g32
g21
tp7527
I0
s(g139
g214
tp7528
I0
s(g146
g77
tp7529
I0
s(g9
g94
tp7530
I0
s(g32
g190
tp7531
I0
s(g122
g6
tp7532
I0
s(g40
g102
tp7533
I0
s(g124
g110
tp7534
I0
s(g190
g61
tp7535
I0
s(g26
g82
tp7536
I0
s(g161
g37
tp7537
I0
s(g5
g122
tp7538
I0
s(g146
g61
tp7539
I0
s(g173
g272
tp7540
I0
s(g61
g102
tp7541
I0
s(g26
g6
tp7542
I0
s(g111
g111
tp7543
F0.74404761904761907
s(g57
g61
tp7544
I0
s(g281
g234
tp7545
I0
s(g11
g84
tp7546
I0
s(g236
g11
tp7547
I0
s(g139
g69
tp7548
I0
s(g51
g28
tp7549
I0
s(g17
g59
tp7550
I0
s(g61
g15
tp7551
I0
s(g35
g37
tp7552
I0
s(g82
g236
tp7553
I0
s(g49
g105
tp7554
I0
s(g57
g34
tp7555
I0
s(g15
g133
tp7556
I0
s(g38
g110
tp7557
I0
s(g40
g74
tp7558
I0
s(g158
g111
tp7559
I0
s(g222
g167
tp7560
I0
s(g148
g14
tp7561
I0
s(g71
g80
tp7562
I0
s(g67
g41
tp7563
I0
s(g56
g124
tp7564
I0
s(g62
g49
tp7565
I0
s(g78
g190
tp7566
I0
s(g20
g72
tp7567
I0
s(g114
g234
tp7568
I0
s(g41
g25
tp7569
I0
s(g18
g94
tp7570
I0
s(g234
g114
tp7571
I0
s(g234
g69
tp7572
I0
s(g12
g31
tp7573
I0
s(g28
g295
tp7574
I0
s(g34
g148
tp7575
I0
s(g69
g31
tp7576
I0
s(g29
g20
tp7577
I0
s(g110
g281
tp7578
I0
s(g21
g2
tp7579
F0.92697472514097923
s(g34
g56
tp7580
I0
s(g88
g124
tp7581
I0
s(g62
g51
tp7582
I0
s(g133
g100
tp7583
I0
s(g31
g90
tp7584
I0
s(g158
g11
tp7585
I0
s(g26
g67
tp7586
I0
s(g12
g105
tp7587
I0
s(g11
g91
tp7588
I0
s(g3
g14
tp7589
I0
s(g72
g124
tp7590
I0
s(g41
g167
tp7591
I0
s(g105
g96
tp7592
I0
s(g105
g124
tp7593
I0
s(g72
g69
tp7594
I0
s(g61
g57
tp7595
I0
s(g87
g295
tp7596
F0.39590230671827525
s(g56
g100
tp7597
I0
s(g110
g28
tp7598
I0
s(g35
g2
tp7599
I0
s(g59
g37
tp7600
I0
s(g59
g11
tp7601
I0
s(g78
g173
tp7602
I0
s(g111
g100
tp7603
I0
s(g62
g122
tp7604
I0
s(g69
g107
tp7605
I0
s(g57
g167
tp7606
I0
s(g110
g222
tp7607
I0
s(g122
g146
tp7608
I0
s(g72
g29
tp7609
I0
s(g71
g214
tp7610
I0
s(g158
g136
tp7611
F0.5
s(g35
g45
tp7612
I0
s(g100
g136
tp7613
I0
s(g236
g161
tp7614
I0
s(g129
g88
tp7615
I0
s(g61
g23
tp7616
I0
s(g15
g82
tp7617
I0
s(g107
g88
tp7618
I0
s(g78
g2
tp7619
I0
s(g105
g59
tp7620
I0
s(g71
g71
tp7621
F0.99412162682453076
s(g28
g87
tp7622
I0
s(g40
g3
tp7623
I0
s(g222
g158
tp7624
I0
s(g71
g74
tp7625
I0
s(g91
g14
tp7626
I0
s(g87
g38
tp7627
I0
s(g142
g133
tp7628
I0
s(g23
g62
tp7629
I0
s(g32
g88
tp7630
I0
s(g115
g34
tp7631
I0
s(g139
g84
tp7632
I0
s(g38
g69
tp7633
I0
s(g65
g178
tp7634
I0
s(g53
g84
tp7635
I0
s(g53
g26
tp7636
I0
s(g78
g72
tp7637
I0
s(g129
g161
tp7638
I0
s(g90
g26
tp7639
I0
s(g164
g6
tp7640
I0
s(g111
g40
tp7641
I0
s(g281
g61
tp7642
I0
s(g142
g281
tp7643
I0
s(g84
g173
tp7644
I0
s(g15
g84
tp7645
I0
s(g34
g178
tp7646
I0
s(g107
g8
tp7647
I0
s(g78
g214
tp7648
I0
s(g222
g78
tp7649
I0
s(g88
g26
tp7650
I0
s(g90
g133
tp7651
I0
s(g77
g77
tp7652
F0.8219104637655259
s(g107
g9
tp7653
I0
s(g31
g236
tp7654
I0
s(g82
g21
tp7655
I0
s(g80
g107
tp7656
I0
s(g6
g14
tp7657
I0
s(g23
g51
tp7658
I0
s(g43
g214
tp7659
I0
s(g40
g173
tp7660
I0
s(g35
g65
tp7661
I0
s(g114
g67
tp7662
I0
s(g29
g80
tp7663
I0
s(g51
g133
tp7664
I0
s(g38
g90
tp7665
I0
s(g56
g26
tp7666
I0
s(g100
g2
tp7667
I0
s(g161
g23
tp7668
I0
s(g84
g43
tp7669
I0
s(g281
g82
tp7670
I0
s(g23
g61
tp7671
I0
s(g167
g234
tp7672
I0
s(g8
g5
tp7673
I0
s(g59
g90
tp7674
I0
s(g88
g37
tp7675
I0
s(g51
g114
tp7676
I0
s(g28
g9
tp7677
I0
s(g295
g62
tp7678
I0
s(g49
g214
tp7679
I0
s(g124
g45
tp7680
I0
s(g41
g72
tp7681
I0
s(g91
g124
tp7682
I0
s(g102
g236
tp7683
I0
s(g46
g3
tp7684
I0
s(g295
g43
tp7685
I0
s(g139
g59
tp7686
I0
s(g69
g281
tp7687
I0
s(g114
g178
tp7688
I0
s(g62
g67
tp7689
I0
s(g142
g17
tp7690
I0
s(g31
g29
tp7691
I0
s(g56
g148
tp7692
I0
s(g173
g38
tp7693
I0
s(g77
g34
tp7694
I0
s(g41
g145
tp7695
I0
s(g67
g32
tp7696
I0
s(g91
g80
tp7697
I0
s(g167
g23
tp7698
I0
s(g37
g18
tp7699
I0
s(g5
g65
tp7700
I0
s(g88
g46
tp7701
I0
s(g35
g20
tp7702
I0
s(g53
g111
tp7703
I0
s(g43
g80
tp7704
I0
s(g88
g67
tp7705
I0
s(g110
g78
tp7706
I0
s(g167
g59
tp7707
I0
s(g148
g164
tp7708
I0
s(g84
g28
tp7709
I0
s(g80
g129
tp7710
I0
s(g222
g51
tp7711
I0
s(g11
g153
tp7712
I0
s(g272
g45
tp7713
I0
s(g17
g80
tp7714
I0
s(g167
g118
tp7715
I0
s(g20
g12
tp7716
I0
s(g51
g129
tp7717
F0.27000000000000002
s(g136
g26
tp7718
I0
s(g82
g28
tp7719
I0
s(g91
g38
tp7720
I0
s(g84
g32
tp7721
I0
s(g67
g21
tp7722
I0
s(g158
g91
tp7723
I0
s(g69
g222
tp7724
I0
s(g20
g15
tp7725
I0
s(g82
g67
tp7726
I0
s(g77
g111
tp7727
I0
s(g145
g72
tp7728
I0
s(g133
g40
tp7729
I0
s(g15
g190
tp7730
I0
s(g133
g236
tp7731
I0
s(g145
g272
tp7732
I0
s(g62
g35
tp7733
I0
s(g96
g15
tp7734
I0
s(g72
g28
tp7735
I0
s(g40
g115
tp7736
I0
s(g67
g28
tp7737
I0
s(g272
g145
tp7738
I0
s(g148
g56
tp7739
I0
s(g35
g90
tp7740
I0
s(g80
g158
tp7741
I0
s(g45
g78
tp7742
I0
s(g17
g65
tp7743
I0
s(g56
g145
tp7744
I0
s(g234
g77
tp7745
I0
s(g115
g14
tp7746
I0
s(g14
g69
tp7747
I0
s(g80
g214
tp7748
I0
s(g82
g20
tp7749
I0
s(g91
g167
tp7750
I0
s(g28
g21
tp7751
I0
s(g74
g136
tp7752
I0
s(g11
g222
tp7753
I0
s(g100
g158
tp7754
I0
s(g114
g21
tp7755
I0
s(g164
g14
tp7756
I0
s(g146
g84
tp7757
I0
s(g41
g61
tp7758
I0
s(g77
g11
tp7759
I0
s(g12
g14
tp7760
I0
s(g26
g20
tp7761
F0.95744680851063835
s(g295
g110
tp7762
I0
s(g40
g53
tp7763
I0
s(g56
g167
tp7764
F0.94117647058823528
s(g124
g40
tp7765
I0
s(g118
g62
tp7766
I0
s(g6
g69
tp7767
I0
s(g173
g23
tp7768
I0
s(g110
g38
tp7769
I0
s(g25
g51
tp7770
I0
s(g146
g51
tp7771
I0
s(g18
g49
tp7772
I0
s(g61
g145
tp7773
I0
s(g100
g3
tp7774
I0
s(g80
g29
tp7775
I0
s(g114
g17
tp7776
I0
s(g38
g105
tp7777
I0
s(g222
g153
tp7778
I0
s(g2
g167
tp7779
I0
s(g100
g295
tp7780
F0.99444214019079213
s(g102
g122
tp7781
I0
s(g9
g78
tp7782
I0
s(g53
g38
tp7783
I0
s(g145
g5
tp7784
I0
s(g38
g8
tp7785
I0
s(g96
g21
tp7786
I0
s(g2
g77
tp7787
I0
s(g35
g67
tp7788
I0
s(g49
g281
tp7789
I0
s(g12
g11
tp7790
I0
s(g43
g41
tp7791
I0
s(g87
g80
tp7792
I0
s(g222
g18
tp7793
I0
s(g26
g72
tp7794
I0
s(g161
g28
tp7795
I0
s(g148
g6
tp7796
I0
s(g164
g88
tp7797
I0
s(g46
g51
tp7798
I0
s(g51
g62
tp7799
I0
s(g272
g38
tp7800
I0
s(g272
g133
tp7801
I0
s(g6
g62
tp7802
I0
s(g51
g5
tp7803
I0
s(g59
g25
tp7804
I0
s(g20
g190
tp7805
I0
s(g82
g281
tp7806
I0
s(g295
g84
tp7807
I0
s(g82
g178
tp7808
F0.76881805990769692
s(g21
g12
tp7809
I0
s(g2
g29
tp7810
I0
s(g234
g23
tp7811
I0
s(g67
g82
tp7812
I0
s(g6
g37
tp7813
I0
s(g234
g9
tp7814
I0
s(g90
g15
tp7815
I0
s(g77
g122
tp7816
I0
s(g53
g25
tp7817
I0
s(g74
g107
tp7818
I0
s(g148
g15
tp7819
I0
s(g96
g74
tp7820
I0
s(g178
g72
tp7821
I0
s(g28
g153
tp7822
I0
s(g59
g114
tp7823
I0
s(g5
g107
tp7824
I0
s(g2
g281
tp7825
I0
s(g5
g114
tp7826
I0
s(g28
g129
tp7827
I0
s(g122
g110
tp7828
I0
s(g164
g38
tp7829
I0
s(g28
g111
tp7830
I0
s(g118
g5
tp7831
I0
s(g164
g133
tp7832
I0
s(g96
g20
tp7833
I0
s(g12
g37
tp7834
I0
s(g46
g57
tp7835
I0
s(g87
g164
tp7836
I0
s(g17
g11
tp7837
I0
s(g26
g281
tp7838
I0
s(g15
g90
tp7839
I0
s(g146
g67
tp7840
I0
s(g38
g234
tp7841
I0
s(g110
g49
tp7842
I0
s(g214
g110
tp7843
I0
s(g61
g65
tp7844
I0
s(g102
g74
tp7845
I0
s(g114
g32
tp7846
I0
s(g142
g32
tp7847
I0
s(g74
g139
tp7848
I0
s(g41
g78
tp7849
I0
s(g57
g3
tp7850
I0
s(g164
g96
tp7851
I0
s(g8
g65
tp7852
I0
s(g84
g145
tp7853
I0
s(g31
g107
tp7854
F0.99136533313223485
s(g94
g88
tp7855
I0
s(g148
g5
tp7856
I0
s(g9
g61
tp7857
I0
s(g2
g118
tp7858
I0
s(g53
g11
tp7859
I0
s(g46
g136
tp7860
I0
s(g11
g9
tp7861
I0
s(g57
g111
tp7862
I0
s(g173
g90
tp7863
I0
s(g84
g29
tp7864
I0
s(g295
g61
tp7865
I0
s(g37
g2
tp7866
I0
s(g71
g236
tp7867
I0
s(g96
g67
tp7868
I0
s(g111
g91
tp7869
I0
s(g167
g80
tp7870
I0
s(g164
g23
tp7871
I0
s(g23
g236
tp7872
I0
s(g15
g26
tp7873
I0
s(g272
g96
tp7874
I0
s(g67
g167
tp7875
I0
s(g77
g41
tp7876
I0
s(g153
g84
tp7877
I0
s(g105
g115
tp7878
I0
s(g61
g124
tp7879
I0
s(g272
g146
tp7880
I0
s(g67
g74
tp7881
I0
s(g12
g21
tp7882
I0
s(g46
g153
tp7883
I0
s(g29
g8
tp7884
I0
s(g71
g67
tp7885
I0
s(g69
g62
tp7886
I0
s(g78
g107
tp7887
I0
s(g94
g71
tp7888
I0
s(g222
g115
tp7889
I0
s(g222
g57
tp7890
I0
s(g67
g94
tp7891
I0
s(g26
g139
tp7892
I0
s(g100
g9
tp7893
I0
s(g12
g222
tp7894
I0
s(g236
g65
tp7895
I0
s(g67
g214
tp7896
I0
s(g6
g105
tp7897
I0
s(g145
g173
tp7898
I0
s(g41
g100
tp7899
I0
s(g142
g158
tp7900
I0
s(g142
g46
tp7901
I0
s(g222
g164
tp7902
I0
s(g102
g102
tp7903
F0.40425531914893614
s(g38
g236
tp7904
I0
s(g105
g281
tp7905
I0
s(g45
g18
tp7906
I0
s(g107
g222
tp7907
I0
s(g94
g15
tp7908
I0
s(g31
g190
tp7909
I0
s(g295
g102
tp7910
I0
s(g167
g65
tp7911
I0
s(g91
g72
tp7912
I0
s(g82
g35
tp7913
I0
s(g139
g90
tp7914
I0
s(g23
g148
tp7915
I0
s(g57
g148
tp7916
I0
s(g88
g102
tp7917
I0
s(g18
g62
tp7918
I0
s(g45
g9
tp7919
I0
s(g8
g295
tp7920
I0
s(g65
g94
tp7921
I0
s(g20
g105
tp7922
I0
s(g72
g158
tp7923
I0
s(g167
g281
tp7924
I0
s(g56
g82
tp7925
I0
s(g124
g88
tp7926
I0
s(g62
g161
tp7927
I0
s(g234
g158
tp7928
I0
s(g26
g124
tp7929
I0
s(g5
g96
tp7930
I0
s(g5
g59
tp7931
I0
s(g124
g34
tp7932
I0
s(g153
g40
tp7933
I0
s(g9
g77
tp7934
I0
s(g15
g146
tp7935
I0
s(g77
g31
tp7936
I0
s(g14
g26
tp7937
I0
s(g57
g74
tp7938
I0
s(g222
g96
tp7939
I0
s(g222
g21
tp7940
I0
s(g96
g25
tp7941
I0
s(g142
g35
tp7942
I0
s(g20
g272
tp7943
I0
s(g136
g124
tp7944
I0
s(g167
g148
tp7945
I0
s(g77
g105
tp7946
I0
s(g21
g142
tp7947
I0
s(g56
g91
tp7948
I0
s(g23
g118
tp7949
I0
s(g65
g57
tp7950
I0
s(g124
g84
tp7951
I0
s(g107
g105
tp7952
I0
s(g3
g122
tp7953
I0
s(g23
g272
tp7954
I0
s(g43
g18
tp7955
I0
s(g87
g158
tp7956
I0
s(g21
g272
tp7957
I0
s(g6
g17
tp7958
I0
s(g11
g295
tp7959
I0
s(g139
g57
tp7960
I0
s(g167
g2
tp7961
I0
s(g148
g167
tp7962
I0
s(g91
g129
tp7963
I0
s(g158
g234
tp7964
I0
s(g96
g105
tp7965
I0
s(g53
g281
tp7966
I0
s(g59
g20
tp7967
I0
s(g32
g161
tp7968
I0
s(g234
g153
tp7969
I0
s(g3
g115
tp7970
I0
s(g118
g295
tp7971
I0
s(g158
g61
tp7972
I0
s(g77
g281
tp7973
I0
s(g105
g148
tp7974
I0
s(g32
g167
tp7975
I0
s(g3
g167
tp7976
I0
s(g18
g115
tp7977
I0
s(g114
g91
tp7978
I0
s(g11
g234
tp7979
I0
s(g12
g82
tp7980
I0
s(g71
g105
tp7981
I0
s(g105
g28
tp7982
F0.98309492847854363
s(g23
g281
tp7983
I0
s(g40
g164
tp7984
I0
s(g57
g281
tp7985
I0
s(g78
g167
tp7986
I0
s(g173
g74
tp7987
I0
s(g153
g78
tp7988
I0
s(g173
g105
tp7989
I0
s(g40
g82
tp7990
I0
s(g5
g32
tp7991
I0
s(g46
g214
tp7992
I0
s(g49
g78
tp7993
I0
s(g115
g173
tp7994
I0
s(g26
g29
tp7995
I0
s(g136
g17
tp7996
I0
s(g145
g57
tp7997
I0
s(g91
g18
tp7998
I0
s(g62
g29
tp7999
I0
s(g26
g114
tp8000
I0
s(g129
g18
tp8001
I0
s(g173
g56
tp8002
I0
s(g23
g133
tp8003
I0
s(g59
g15
tp8004
I0
s(g3
g41
tp8005
F0.99242983370853621
s(g90
g129
tp8006
I0
s(g80
g37
tp8007
I0
s(g281
g87
tp8008
I0
s(g59
g65
tp8009
I0
s(g214
g6
tp8010
I0
s(g67
g234
tp8011
I0
s.